(lp1
ccopy_reg
_reconstructor
p2
(cEntityFrames
EntityFrames
p3
c__builtin__
object
p4
NtRp5
(dp6
S'frames'
p7
(lp8
(dp9
VSentenceId
p10
V30
p11
sVFrameData
p12
(lp13
(dp14
VValue
p15
(dp16
VPlaceInSentence
p17
I2
sVEntity
p18
I75168
ssVKey
p19
I6
sa(dp20
VValue
p21
(dp22
VPlaceInSentence
p23
I3
sVEntity
p24
I42
ssVKey
p25
I3
sa(dp26
VValue
p27
(dp28
VPlaceInSentence
p29
I28
sVEntity
p30
I75173
ssVKey
p31
I2
sasVSourceId
p32
VPipeline parse at 2013-10-12T05:42:55.850416
p33
sVTargetWord
p34
NsVDocumentId
p35
V6A8FC9DF-A9FE-400A-8C57-D9C5C75418EB
p36
sVFrameId
p37
I1261893
sS'FrameCnt'
p38
I1
sVIsDeleted
p39
I00
sVIsBlessed
p40
I00
sVIsHidden
p41
I00
sVFrameType
p42
I22
sa(dp43
VSentenceId
p44
V19
p45
sVFrameData
p46
(lp47
(dp48
VValue
p49
(dp50
VPlaceInSentence
p51
I2
sVEntity
p52
I77269
ssVKey
p53
I6
sa(dp54
VValue
p55
(dp56
VPlaceInSentence
p57
I3
sVEntity
p58
I42
ssVKey
p59
I3
sa(dp60
VValue
p61
(dp62
VPlaceInSentence
p63
I15
sVEntity
p64
I75173
ssVKey
p65
I2
sasVSourceId
p66
VPipeline parse at 2013-10-12T05:41:07.644367
p67
sVTargetWord
p68
NsVDocumentId
p69
V5FE08E7F-66C0-413B-B68B-7E159E2B597B
p70
sVFrameId
p71
I1261437
sg38
I1
sVIsDeleted
p72
I00
sVIsBlessed
p73
I00
sVIsHidden
p74
I00
sVFrameType
p75
I22
sa(dp76
VSentenceId
p77
V14
p78
sVFrameData
p79
(lp80
(dp81
VValue
p82
(dp83
VPlaceInSentence
p84
I6
sVEntity
p85
I76033
ssVKey
p86
I3
sa(dp87
VValue
p88
(dp89
VPlaceInSentence
p90
I2
sVEntity
p91
I76032
ssVKey
p92
I7
sa(dp93
VValue
p94
(dp95
VPlaceInSentence
p96
I3
sVEntity
p97
I42
ssVKey
p98
I4
sasVSourceId
p99
VPipeline parse at 2013-10-12T05:41:07.644110
p100
sVTargetWord
p101
NsVDocumentId
p102
V5FE08E7F-66C0-413B-B68B-7E159E2B597B
p103
sVFrameId
p104
I1261432
sg38
I1
sVIsDeleted
p105
I00
sVIsBlessed
p106
I00
sVIsHidden
p107
I00
sVFrameType
p108
I10
sa(dp109
VSentenceId
p110
V3
sVFrameData
p111
(lp112
(dp113
VValue
p114
(dp115
VPlaceInSentence
p116
I0
sVEntity
p117
I42
ssVKey
p118
I1
sa(dp119
VValue
p120
(dp121
VPlaceInSentence
p122
I0
sVEntity
p123
I68
ssVKey
p124
I2
sasVSourceId
p125
VManual sample data - LETA
p126
sVTargetWord
p127
NsVDocumentId
p128
V5FE08E7F-66C0-413B-B68B-7E159E2B597B
p129
sVFrameId
p130
I1000040
sg38
I1
sVIsDeleted
p131
I00
sVIsBlessed
p132
I00
sVIsHidden
p133
I00
sVFrameType
p134
I7
sa(dp135
VSentenceId
p136
V13
p137
sVFrameData
p138
(lp139
(dp140
VValue
p141
(dp142
VPlaceInSentence
p143
I6
sVEntity
p144
I76033
ssVKey
p145
I3
sa(dp146
VValue
p147
(dp148
VPlaceInSentence
p149
I2
sVEntity
p150
I76032
ssVKey
p151
I7
sa(dp152
VValue
p153
(dp154
VPlaceInSentence
p155
I3
sVEntity
p156
I42
ssVKey
p157
I4
sasVSourceId
p158
VPipeline parse at 2013-10-12T06:00:21.564479
p159
sVTargetWord
p160
NsVDocumentId
p161
VF82644C0-95D7-44C7-AB1D-774E564FB8E1
p162
sVFrameId
p163
I1266074
sg38
I1
sVIsDeleted
p164
I00
sVIsBlessed
p165
I00
sVIsHidden
p166
I00
sVFrameType
p167
I10
sa(dp168
VSentenceId
p169
V18
p170
sVFrameData
p171
(lp172
(dp173
VValue
p174
(dp175
VPlaceInSentence
p176
I2
sVEntity
p177
I75168
ssVKey
p178
I6
sa(dp179
VValue
p180
(dp181
VPlaceInSentence
p182
I14
sVEntity
p183
I42
ssVKey
p184
I3
sa(dp185
VValue
p186
(dp187
VPlaceInSentence
p188
I26
sVEntity
p189
I77981
ssVKey
p190
I2
sasVSourceId
p191
VPipeline parse at 2013-10-12T05:55:20.191839
p192
sVTargetWord
p193
NsVDocumentId
p194
VCB75BC31-8AF3-4DEE-8B3E-CB5463E646E8
p195
sVFrameId
p196
I1264850
sg38
I1
sVIsDeleted
p197
I00
sVIsBlessed
p198
I00
sVIsHidden
p199
I00
sVFrameType
p200
I22
sa(dp201
VSentenceId
p202
V24
p203
sVFrameData
p204
(lp205
(dp206
VValue
p207
(dp208
VPlaceInSentence
p209
I0
sVEntity
p210
I51
ssVKey
p211
I5
sa(dp212
VValue
p213
(dp214
VPlaceInSentence
p215
I0
sVEntity
p216
I57
ssVKey
p217
I2
sa(dp218
VValue
p219
(dp220
VPlaceInSentence
p221
I0
sVEntity
p222
I42
ssVKey
p223
I1
sa(dp224
VValue
p225
(dp226
VPlaceInSentence
p227
I0
sVEntity
p228
I58
ssVKey
p229
I3
sasVSourceId
p230
VManual sample data - kasjauns.lv
p231
sVTargetWord
p232
NsVDocumentId
p233
V5D1D9D88-CDBB-4B32-BDE1-CE0DBBC7A18A
p234
sVFrameId
p235
I1000020
sg38
I1
sVIsDeleted
p236
I00
sVIsBlessed
p237
I00
sVIsHidden
p238
I00
sVFrameType
p239
I6
sa(dp240
VSentenceId
p241
V16
p242
sVFrameData
p243
(lp244
(dp245
VValue
p246
(dp247
VPlaceInSentence
p248
I6
sVEntity
p249
I76033
ssVKey
p250
I3
sa(dp251
VValue
p252
(dp253
VPlaceInSentence
p254
I2
sVEntity
p255
I76032
ssVKey
p256
I7
sa(dp257
VValue
p258
(dp259
VPlaceInSentence
p260
I3
sVEntity
p261
I42
ssVKey
p262
I4
sasVSourceId
p263
VPipeline parse at 2013-10-12T05:53:43.012935
p264
sVTargetWord
p265
NsVDocumentId
p266
VB887EC73-C03D-4096-9E28-C5A9B3287563
p267
sVFrameId
p268
I1264452
sg38
I1
sVIsDeleted
p269
I00
sVIsBlessed
p270
I00
sVIsHidden
p271
I00
sVFrameType
p272
I10
sa(dp273
VSentenceId
p274
V12
p275
sVFrameData
p276
(lp277
(dp278
VValue
p279
(dp280
VPlaceInSentence
p281
I2
sVEntity
p282
I75168
ssVKey
p283
I6
sa(dp284
VValue
p285
(dp286
VPlaceInSentence
p287
I3
sVEntity
p288
I42
ssVKey
p289
I3
sa(dp290
VValue
p291
(dp292
VPlaceInSentence
p293
I28
sVEntity
p294
I75173
ssVKey
p295
I2
sasVSourceId
p296
VPipeline parse at 2013-10-12T05:36:23.389434
p297
sVTargetWord
p298
NsVDocumentId
p299
V3E638278-62DC-4E79-A405-A8AAADE41A36
p300
sVFrameId
p301
I1260219
sg38
I1
sVIsDeleted
p302
I00
sVIsBlessed
p303
I00
sVIsHidden
p304
I00
sVFrameType
p305
I22
sa(dp306
VSentenceId
p307
V15
p308
sVFrameData
p309
(lp310
(dp311
VValue
p312
(dp313
VPlaceInSentence
p314
I2
sVEntity
p315
I75168
ssVKey
p316
I6
sa(dp317
VValue
p318
(dp319
VPlaceInSentence
p320
I3
sVEntity
p321
I42
ssVKey
p322
I3
sa(dp323
VValue
p324
(dp325
VPlaceInSentence
p326
I28
sVEntity
p327
I75173
ssVKey
p328
I2
sasVSourceId
p329
VPipeline parse at 2013-10-12T05:53:43.012743
p330
sVTargetWord
p331
NsVDocumentId
p332
VB887EC73-C03D-4096-9E28-C5A9B3287563
p333
sVFrameId
p334
I1264450
sg38
I1
sVIsDeleted
p335
I00
sVIsBlessed
p336
I00
sVIsHidden
p337
I00
sVFrameType
p338
I22
sa(dp339
VSentenceId
p340
V10
p341
sVFrameData
p342
(lp343
(dp344
VValue
p345
(dp346
VPlaceInSentence
p347
I2
sVEntity
p348
I75168
ssVKey
p349
I6
sa(dp350
VValue
p351
(dp352
VPlaceInSentence
p353
I4
sVEntity
p354
I42
ssVKey
p355
I3
sa(dp356
VValue
p357
(dp358
VPlaceInSentence
p359
I24
sVEntity
p360
I103510
ssVKey
p361
I2
sasVSourceId
p362
VPipeline parse at 2013-10-12T06:01:23.782152
p363
sVTargetWord
p364
NsVDocumentId
p365
VFF22B8B3-1974-442A-BB91-5E8D09AE6543
p366
sVFrameId
p367
I1266299
sg38
I1
sVIsDeleted
p368
I00
sVIsBlessed
p369
I00
sVIsHidden
p370
I00
sVFrameType
p371
I22
sa(dp372
VSentenceId
p373
V15
p374
sVFrameData
p375
(lp376
(dp377
VValue
p378
(dp379
VPlaceInSentence
p380
I6
sVEntity
p381
I76033
ssVKey
p382
I3
sa(dp383
VValue
p384
(dp385
VPlaceInSentence
p386
I2
sVEntity
p387
I76032
ssVKey
p388
I7
sa(dp389
VValue
p390
(dp391
VPlaceInSentence
p392
I3
sVEntity
p393
I42
ssVKey
p394
I4
sasVSourceId
p395
VPipeline parse at 2013-10-12T05:49:01.704558
p396
sVTargetWord
p397
NsVDocumentId
p398
V94527745-D752-49A4-845D-0AFC090679B7
p399
sVFrameId
p400
I1263295
sg38
I1
sVIsDeleted
p401
I00
sVIsBlessed
p402
I00
sVIsHidden
p403
I00
sVFrameType
p404
I10
sa(dp405
VSentenceId
p406
V41
p407
sVFrameData
p408
(lp409
(dp410
VValue
p411
(dp412
VPlaceInSentence
p413
I2
sVEntity
p414
I75168
ssVKey
p415
I6
sa(dp416
VValue
p417
(dp418
VPlaceInSentence
p419
I3
sVEntity
p420
I42
ssVKey
p421
I3
sa(dp422
VValue
p423
(dp424
VPlaceInSentence
p425
I15
sVEntity
p426
I75173
ssVKey
p427
I2
sasVSourceId
p428
VPipeline parse at 2013-10-12T05:57:57.996588
p429
sVTargetWord
p430
NsVDocumentId
p431
VE3790803-5510-4A9A-A24B-D3A0D0EC4DD0
p432
sVFrameId
p433
I1265476
sg38
I1
sVIsDeleted
p434
I00
sVIsBlessed
p435
I00
sVIsHidden
p436
I00
sVFrameType
p437
I22
sa(dp438
VSentenceId
p439
V14
p440
sVFrameData
p441
(lp442
(dp443
VValue
p444
(dp445
VPlaceInSentence
p446
I2
sVEntity
p447
I75168
ssVKey
p448
I6
sa(dp449
VValue
p450
(dp451
VPlaceInSentence
p452
I3
sVEntity
p453
I42
ssVKey
p454
I3
sa(dp455
VValue
p456
(dp457
VPlaceInSentence
p458
I28
sVEntity
p459
I75173
ssVKey
p460
I2
sasVSourceId
p461
VPipeline parse at 2013-10-12T05:51:38.074082
p462
sVTargetWord
p463
NsVDocumentId
p464
VAAA023AD-AFC4-4E27-8C15-3E867A064C79
p465
sVFrameId
p466
I1263964
sg38
I1
sVIsDeleted
p467
I00
sVIsBlessed
p468
I00
sVIsHidden
p469
I00
sVFrameType
p470
I22
sa(dp471
VSentenceId
p472
V17
p473
sVFrameData
p474
(lp475
(dp476
VValue
p477
(dp478
VPlaceInSentence
p479
I9
sVEntity
p480
I75392
ssVKey
p481
I6
sa(dp482
VValue
p483
(dp484
VPlaceInSentence
p485
I13
sVEntity
p486
I75392
ssVKey
p487
I5
sa(dp488
VValue
p489
(dp490
VPlaceInSentence
p491
I3
sVEntity
p492
I42
ssVKey
p493
I3
sasVSourceId
p494
VPipeline parse at 2013-10-12T05:38:52.442103
p495
sVTargetWord
p496
NsVDocumentId
p497
V50D05E34-A0FD-4A80-9D3E-4FF18D39EFF8
p498
sVFrameId
p499
I1260891
sg38
I1
sVIsDeleted
p500
I00
sVIsBlessed
p501
I00
sVIsHidden
p502
I00
sVFrameType
p503
I22
sa(dp504
VSentenceId
p505
V35
p506
sVFrameData
p507
(lp508
(dp509
VValue
p510
(dp511
VPlaceInSentence
p512
I2
sVEntity
p513
I75168
ssVKey
p514
I6
sa(dp515
VValue
p516
(dp517
VPlaceInSentence
p518
I3
sVEntity
p519
I42
ssVKey
p520
I3
sa(dp521
VValue
p522
(dp523
VPlaceInSentence
p524
I28
sVEntity
p525
I75173
ssVKey
p526
I2
sasVSourceId
p527
VPipeline parse at 2013-10-12T05:57:57.996116
p528
sVTargetWord
p529
NsVDocumentId
p530
VE3790803-5510-4A9A-A24B-D3A0D0EC4DD0
p531
sVFrameId
p532
I1265470
sg38
I1
sVIsDeleted
p533
I00
sVIsBlessed
p534
I00
sVIsHidden
p535
I00
sVFrameType
p536
I22
sa(dp537
VSentenceId
p538
V28
p539
sVFrameData
p540
(lp541
(dp542
VValue
p543
(dp544
VPlaceInSentence
p545
I2
sVEntity
p546
I75168
ssVKey
p547
I6
sa(dp548
VValue
p549
(dp550
VPlaceInSentence
p551
I3
sVEntity
p552
I42
ssVKey
p553
I3
sa(dp554
VValue
p555
(dp556
VPlaceInSentence
p557
I28
sVEntity
p558
I77981
ssVKey
p559
I2
sasVSourceId
p560
VPipeline parse at 2013-10-12T05:37:41.446575
p561
sVTargetWord
p562
NsVDocumentId
p563
V4B3E74FD-7EDD-4960-9C03-5A1D28D7FD61
p564
sVFrameId
p565
I1260643
sg38
I1
sVIsDeleted
p566
I00
sVIsBlessed
p567
I00
sVIsHidden
p568
I00
sVFrameType
p569
I22
sa(dp570
VSentenceId
p571
V22
p572
sVFrameData
p573
(lp574
(dp575
VValue
p576
(dp577
VPlaceInSentence
p578
I0
sVEntity
p579
I46
ssVKey
p580
I4
sa(dp581
VValue
p582
(dp583
VPlaceInSentence
p584
I0
sVEntity
p585
I44
ssVKey
p586
I2
sa(dp587
VValue
p588
(dp589
VPlaceInSentence
p590
I0
sVEntity
p591
I45
ssVKey
p592
I3
sa(dp593
VValue
p594
(dp595
VPlaceInSentence
p596
I0
sVEntity
p597
I42
ssVKey
p598
I1
sasVSourceId
p599
VManual sample data - kasjauns.lv
p600
sVTargetWord
p601
NsVDocumentId
p602
V5D1D9D88-CDBB-4B32-BDE1-CE0DBBC7A18A
p603
sVFrameId
p604
I1000017
sg38
I1
sVIsDeleted
p605
I00
sVIsBlessed
p606
I00
sVIsHidden
p607
I00
sVFrameType
p608
I0
sa(dp609
VSentenceId
p610
V8
sVFrameData
p611
(lp612
(dp613
VValue
p614
(dp615
VPlaceInSentence
p616
I2
sVEntity
p617
I42
ssVKey
p618
I3
sa(dp619
VValue
p620
(dp621
VPlaceInSentence
p622
I19
sVEntity
p623
I103510
ssVKey
p624
I2
sasVSourceId
p625
VPipeline parse at 2013-10-12T05:34:20.436253
p626
sVTargetWord
p627
NsVDocumentId
p628
V24F77CD9-871E-4276-B016-F0560984315D
p629
sVFrameId
p630
I1259731
sg38
I1
sVIsDeleted
p631
I00
sVIsBlessed
p632
I00
sVIsHidden
p633
I00
sVFrameType
p634
I22
sa(dp635
VSentenceId
p636
V15
p637
sVFrameData
p638
(lp639
(dp640
VValue
p641
(dp642
VPlaceInSentence
p643
I2
sVEntity
p644
I75168
ssVKey
p645
I6
sa(dp646
VValue
p647
(dp648
VPlaceInSentence
p649
I3
sVEntity
p650
I42
ssVKey
p651
I3
sa(dp652
VValue
p653
(dp654
VPlaceInSentence
p655
I28
sVEntity
p656
I75173
ssVKey
p657
I2
sasVSourceId
p658
VPipeline parse at 2013-10-12T05:53:43.012841
p659
sVTargetWord
p660
NsVDocumentId
p661
VB887EC73-C03D-4096-9E28-C5A9B3287563
p662
sVFrameId
p663
I1264451
sg38
I1
sVIsDeleted
p664
I00
sVIsBlessed
p665
I00
sVIsHidden
p666
I00
sVFrameType
p667
I22
sa(dp668
VSentenceId
p669
V14
p670
sVFrameData
p671
(lp672
(dp673
VValue
p674
(dp675
VPlaceInSentence
p676
I2
sVEntity
p677
I75168
ssVKey
p678
I6
sa(dp679
VValue
p680
(dp681
VPlaceInSentence
p682
I3
sVEntity
p683
I42
ssVKey
p684
I3
sa(dp685
VValue
p686
(dp687
VPlaceInSentence
p688
I24
sVEntity
p689
I103510
ssVKey
p690
I2
sasVSourceId
p691
VPipeline parse at 2013-10-12T05:49:01.704257
p692
sVTargetWord
p693
NsVDocumentId
p694
V94527745-D752-49A4-845D-0AFC090679B7
p695
sVFrameId
p696
I1263292
sg38
I1
sVIsDeleted
p697
I00
sVIsBlessed
p698
I00
sVIsHidden
p699
I00
sVFrameType
p700
I22
sa(dp701
VSentenceId
p702
V12
p703
sVFrameData
p704
(lp705
(dp706
VValue
p707
(dp708
VPlaceInSentence
p709
I11
sVEntity
p710
I79062
ssVKey
p711
I7
sa(dp712
VValue
p713
(dp714
VPlaceInSentence
p715
I2
sVEntity
p716
I42
ssVKey
p717
I4
sasVSourceId
p718
VPipeline parse at 2013-10-12T05:36:53.739701
p719
sVTargetWord
p720
NsVDocumentId
p721
V435C1DDB-602F-4EF9-9716-E476C528C3D2
p722
sVFrameId
p723
I1260380
sg38
I1
sVIsDeleted
p724
I00
sVIsBlessed
p725
I00
sVIsHidden
p726
I00
sVFrameType
p727
I10
sa(dp728
VSentenceId
p729
V17
p730
sVFrameData
p731
(lp732
(dp733
VValue
p734
(dp735
VPlaceInSentence
p736
I14
sVEntity
p737
I75392
ssVKey
p738
I6
sa(dp739
VValue
p740
(dp741
VPlaceInSentence
p742
I18
sVEntity
p743
I75392
ssVKey
p744
I5
sa(dp745
VValue
p746
(dp747
VPlaceInSentence
p748
I8
sVEntity
p749
I42
ssVKey
p750
I3
sasVSourceId
p751
VPipeline parse at 2013-10-12T05:52:57.514735
p752
sVTargetWord
p753
NsVDocumentId
p754
VB3C6D36E-3D32-4336-B110-8602E62D8354
p755
sVFrameId
p756
I1264255
sg38
I1
sVIsDeleted
p757
I00
sVIsBlessed
p758
I00
sVIsHidden
p759
I00
sVFrameType
p760
I22
sa(dp761
VSentenceId
p762
V9
sVFrameData
p763
(lp764
(dp765
VValue
p766
(dp767
VPlaceInSentence
p768
I2
sVEntity
p769
I75168
ssVKey
p770
I7
sa(dp771
VValue
p772
(dp773
VPlaceInSentence
p774
I3
sVEntity
p775
I42
ssVKey
p776
I4
sasVSourceId
p777
VPipeline parse at 2013-10-12T05:58:04.171294
p778
sVTargetWord
p779
NsVDocumentId
p780
VE408E38D-DBF2-4877-AE4B-5B6A48C8E196
p781
sVFrameId
p782
I1265505
sg38
I1
sVIsDeleted
p783
I00
sVIsBlessed
p784
I00
sVIsHidden
p785
I00
sVFrameType
p786
I10
sa(dp787
VSentenceId
p788
V8
sVFrameData
p789
(lp790
(dp791
VValue
p792
(dp793
VPlaceInSentence
p794
I2
sVEntity
p795
I42
ssVKey
p796
I3
sa(dp797
VValue
p798
(dp799
VPlaceInSentence
p800
I19
sVEntity
p801
I103510
ssVKey
p802
I2
sasVSourceId
p803
VPipeline parse at 2013-10-12T05:34:20.436185
p804
sVTargetWord
p805
NsVDocumentId
p806
V24F77CD9-871E-4276-B016-F0560984315D
p807
sVFrameId
p808
I1259730
sg38
I1
sVIsDeleted
p809
I00
sVIsBlessed
p810
I00
sVIsHidden
p811
I00
sVFrameType
p812
I22
sa(dp813
VSentenceId
p814
V15
p815
sVFrameData
p816
(lp817
(dp818
VValue
p819
(dp820
VPlaceInSentence
p821
I2
sVEntity
p822
I75168
ssVKey
p823
I6
sa(dp824
VValue
p825
(dp826
VPlaceInSentence
p827
I3
sVEntity
p828
I42
ssVKey
p829
I3
sa(dp830
VValue
p831
(dp832
VPlaceInSentence
p833
I28
sVEntity
p834
I75173
ssVKey
p835
I2
sasVSourceId
p836
VPipeline parse at 2013-10-12T05:53:43.012644
p837
sVTargetWord
p838
NsVDocumentId
p839
VB887EC73-C03D-4096-9E28-C5A9B3287563
p840
sVFrameId
p841
I1264449
sg38
I1
sVIsDeleted
p842
I00
sVIsBlessed
p843
I00
sVIsHidden
p844
I00
sVFrameType
p845
I22
sa(dp846
VSentenceId
p847
V20
p848
sVFrameData
p849
(lp850
(dp851
VValue
p852
(dp853
VPlaceInSentence
p854
I2
sVEntity
p855
I77269
ssVKey
p856
I6
sa(dp857
VValue
p858
(dp859
VPlaceInSentence
p860
I3
sVEntity
p861
I42
ssVKey
p862
I3
sa(dp863
VValue
p864
(dp865
VPlaceInSentence
p866
I15
sVEntity
p867
I75173
ssVKey
p868
I2
sasVSourceId
p869
VPipeline parse at 2013-10-12T05:51:38.074600
p870
sVTargetWord
p871
NsVDocumentId
p872
VAAA023AD-AFC4-4E27-8C15-3E867A064C79
p873
sVFrameId
p874
I1263972
sg38
I1
sVIsDeleted
p875
I00
sVIsBlessed
p876
I00
sVIsHidden
p877
I00
sVFrameType
p878
I22
sa(dp879
VSentenceId
p880
V10
p881
sVFrameData
p882
(lp883
(dp884
VValue
p885
(dp886
VPlaceInSentence
p887
I2
sVEntity
p888
I75168
ssVKey
p889
I6
sa(dp890
VValue
p891
(dp892
VPlaceInSentence
p893
I3
sVEntity
p894
I42
ssVKey
p895
I3
sa(dp896
VValue
p897
(dp898
VPlaceInSentence
p899
I28
sVEntity
p900
I77981
ssVKey
p901
I2
sasVSourceId
p902
VPipeline parse at 2013-10-12T05:57:31.967625
p903
sVTargetWord
p904
NsVDocumentId
p905
VDA670CBD-CB23-4180-96E0-7D72435EC76F
p906
sVFrameId
p907
I1265356
sg38
I1
sVIsDeleted
p908
I00
sVIsBlessed
p909
I00
sVIsHidden
p910
I00
sVFrameType
p911
I22
sa(dp912
VSentenceId
p913
V17
p914
sVFrameData
p915
(lp916
(dp917
VValue
p918
(dp919
VPlaceInSentence
p920
I1
sVEntity
p921
I75176
ssVKey
p922
I6
sa(dp923
VValue
p924
(dp925
VPlaceInSentence
p926
I2
sVEntity
p927
I42
ssVKey
p928
I3
sa(dp929
VValue
p930
(dp931
VPlaceInSentence
p932
I14
sVEntity
p933
I75176
ssVKey
p934
I2
sasVSourceId
p935
VPipeline parse at 2013-10-12T05:37:27.425053
p936
sVTargetWord
p937
NsVDocumentId
p938
V47879BB1-1963-41F3-AF3A-2AEF88930727
p939
sVFrameId
p940
I1260574
sg38
I1
sVIsDeleted
p941
I00
sVIsBlessed
p942
I00
sVIsHidden
p943
I00
sVFrameType
p944
I22
sa(dp945
VSentenceId
p946
V40
p947
sVFrameData
p948
(lp949
(dp950
VValue
p951
(dp952
VPlaceInSentence
p953
I2
sVEntity
p954
I75168
ssVKey
p955
I6
sa(dp956
VValue
p957
(dp958
VPlaceInSentence
p959
I3
sVEntity
p960
I42
ssVKey
p961
I3
sa(dp962
VValue
p963
(dp964
VPlaceInSentence
p965
I28
sVEntity
p966
I75173
ssVKey
p967
I2
sasVSourceId
p968
VPipeline parse at 2013-10-12T05:43:25.735251
p969
sVTargetWord
p970
NsVDocumentId
p971
V7320BA22-4B40-4A6E-8516-99A1365FC9EC
p972
sVFrameId
p973
I1262016
sg38
I1
sVIsDeleted
p974
I00
sVIsBlessed
p975
I00
sVIsHidden
p976
I00
sVFrameType
p977
I22
sa(dp978
VSentenceId
p979
V5
sVFrameData
p980
(lp981
(dp982
VValue
p983
(dp984
VPlaceInSentence
p985
I2
sVEntity
p986
I56
ssVKey
p987
I6
sa(dp988
VValue
p989
(dp990
VPlaceInSentence
p991
I15
sVEntity
p992
I42
ssVKey
p993
I3
sa(dp994
VValue
p995
(dp996
VPlaceInSentence
p997
I9
sVEntity
p998
I118699
ssVKey
p999
I2
sasVSourceId
p1000
VPipeline parse at 2013-10-12T05:55:31.452546
p1001
sVTargetWord
p1002
NsVDocumentId
p1003
VCD31F7A1-7D4D-11D7-B170-0010B594D402
p1004
sVFrameId
p1005
I1264893
sg38
I1
sVIsDeleted
p1006
I00
sVIsBlessed
p1007
I00
sVIsHidden
p1008
I00
sVFrameType
p1009
I22
sa(dp1010
VSentenceId
p1011
V35
p1012
sVFrameData
p1013
(lp1014
(dp1015
VValue
p1016
(dp1017
VPlaceInSentence
p1018
I2
sVEntity
p1019
I75168
ssVKey
p1020
I6
sa(dp1021
VValue
p1022
(dp1023
VPlaceInSentence
p1024
I3
sVEntity
p1025
I42
ssVKey
p1026
I3
sa(dp1027
VValue
p1028
(dp1029
VPlaceInSentence
p1030
I28
sVEntity
p1031
I75173
ssVKey
p1032
I2
sasVSourceId
p1033
VPipeline parse at 2013-10-12T05:57:57.995905
p1034
sVTargetWord
p1035
NsVDocumentId
p1036
VE3790803-5510-4A9A-A24B-D3A0D0EC4DD0
p1037
sVFrameId
p1038
I1265468
sg38
I1
sVIsDeleted
p1039
I00
sVIsBlessed
p1040
I00
sVIsHidden
p1041
I00
sVFrameType
p1042
I22
sa(dp1043
VSentenceId
p1044
V36
p1045
sVFrameData
p1046
(lp1047
(dp1048
VValue
p1049
(dp1050
VPlaceInSentence
p1051
I6
sVEntity
p1052
I76033
ssVKey
p1053
I3
sa(dp1054
VValue
p1055
(dp1056
VPlaceInSentence
p1057
I2
sVEntity
p1058
I76032
ssVKey
p1059
I7
sa(dp1060
VValue
p1061
(dp1062
VPlaceInSentence
p1063
I3
sVEntity
p1064
I42
ssVKey
p1065
I4
sasVSourceId
p1066
VPipeline parse at 2013-10-12T05:57:57.996221
p1067
sVTargetWord
p1068
NsVDocumentId
p1069
VE3790803-5510-4A9A-A24B-D3A0D0EC4DD0
p1070
sVFrameId
p1071
I1265471
sg38
I1
sVIsDeleted
p1072
I00
sVIsBlessed
p1073
I00
sVIsHidden
p1074
I00
sVFrameType
p1075
I10
sa(dp1076
VSentenceId
p1077
V12
p1078
sVFrameData
p1079
(lp1080
(dp1081
VValue
p1082
(dp1083
VPlaceInSentence
p1084
I2
sVEntity
p1085
I75168
ssVKey
p1086
I6
sa(dp1087
VValue
p1088
(dp1089
VPlaceInSentence
p1090
I3
sVEntity
p1091
I42
ssVKey
p1092
I3
sa(dp1093
VValue
p1094
(dp1095
VPlaceInSentence
p1096
I28
sVEntity
p1097
I75176
ssVKey
p1098
I2
sasVSourceId
p1099
VPipeline parse at 2013-10-12T06:00:21.564195
p1100
sVTargetWord
p1101
NsVDocumentId
p1102
VF82644C0-95D7-44C7-AB1D-774E564FB8E1
p1103
sVFrameId
p1104
I1266071
sg38
I1
sVIsDeleted
p1105
I00
sVIsBlessed
p1106
I00
sVIsHidden
p1107
I00
sVFrameType
p1108
I22
sa(dp1109
VSentenceId
p1110
V10
p1111
sVFrameData
p1112
(lp1113
(dp1114
VValue
p1115
(dp1116
VPlaceInSentence
p1117
I2
sVEntity
p1118
I75168
ssVKey
p1119
I6
sa(dp1120
VValue
p1121
(dp1122
VPlaceInSentence
p1123
I4
sVEntity
p1124
I42
ssVKey
p1125
I3
sa(dp1126
VValue
p1127
(dp1128
VPlaceInSentence
p1129
I24
sVEntity
p1130
I103510
ssVKey
p1131
I2
sasVSourceId
p1132
VPipeline parse at 2013-10-12T06:01:23.782260
p1133
sVTargetWord
p1134
NsVDocumentId
p1135
VFF22B8B3-1974-442A-BB91-5E8D09AE6543
p1136
sVFrameId
p1137
I1266300
sg38
I1
sVIsDeleted
p1138
I00
sVIsBlessed
p1139
I00
sVIsHidden
p1140
I00
sVFrameType
p1141
I22
sa(dp1142
VSentenceId
p1143
V28
p1144
sVFrameData
p1145
(lp1146
(dp1147
VValue
p1148
(dp1149
VPlaceInSentence
p1150
I2
sVEntity
p1151
I75168
ssVKey
p1152
I6
sa(dp1153
VValue
p1154
(dp1155
VPlaceInSentence
p1156
I3
sVEntity
p1157
I42
ssVKey
p1158
I3
sa(dp1159
VValue
p1160
(dp1161
VPlaceInSentence
p1162
I28
sVEntity
p1163
I77981
ssVKey
p1164
I2
sasVSourceId
p1165
VPipeline parse at 2013-10-12T05:41:25.758718
p1166
sVTargetWord
p1167
NsVDocumentId
p1168
V6137E126-6852-4EAA-8524-3AD34DBBE243
p1169
sVFrameId
p1170
I1261519
sg38
I1
sVIsDeleted
p1171
I00
sVIsBlessed
p1172
I00
sVIsHidden
p1173
I00
sVFrameType
p1174
I22
sa(dp1175
VSentenceId
p1176
V12
p1177
sVFrameData
p1178
(lp1179
(dp1180
VValue
p1181
(dp1182
VPlaceInSentence
p1183
I2
sVEntity
p1184
I75168
ssVKey
p1185
I6
sa(dp1186
VValue
p1187
(dp1188
VPlaceInSentence
p1189
I3
sVEntity
p1190
I42
ssVKey
p1191
I3
sa(dp1192
VValue
p1193
(dp1194
VPlaceInSentence
p1195
I28
sVEntity
p1196
I75173
ssVKey
p1197
I2
sasVSourceId
p1198
VPipeline parse at 2013-10-12T05:49:13.643280
p1199
sVTargetWord
p1200
NsVDocumentId
p1201
V9673721B-3D8F-4C43-AD0D-38355479F7AA
p1202
sVFrameId
p1203
I1263357
sg38
I1
sVIsDeleted
p1204
I00
sVIsBlessed
p1205
I00
sVIsHidden
p1206
I00
sVFrameType
p1207
I22
sa(dp1208
VSentenceId
p1209
V12
p1210
sVFrameData
p1211
(lp1212
(dp1213
VValue
p1214
(dp1215
VPlaceInSentence
p1216
I2
sVEntity
p1217
I75168
ssVKey
p1218
I6
sa(dp1219
VValue
p1220
(dp1221
VPlaceInSentence
p1222
I3
sVEntity
p1223
I42
ssVKey
p1224
I3
sa(dp1225
VValue
p1226
(dp1227
VPlaceInSentence
p1228
I28
sVEntity
p1229
I77981
ssVKey
p1230
I2
sasVSourceId
p1231
VPipeline parse at 2013-10-12T05:59:09.405559
p1232
sVTargetWord
p1233
NsVDocumentId
p1234
VECDEE338-F39E-4DE6-964A-5E86262FDF91
p1235
sVFrameId
p1236
I1265740
sg38
I1
sVIsDeleted
p1237
I00
sVIsBlessed
p1238
I00
sVIsHidden
p1239
I00
sVFrameType
p1240
I22
sa(dp1241
VSentenceId
p1242
V5
sVFrameData
p1243
(lp1244
(dp1245
VValue
p1246
(dp1247
VPlaceInSentence
p1248
I0
sVEntity
p1249
I49
ssVKey
p1250
I2
sa(dp1251
VValue
p1252
(dp1253
VPlaceInSentence
p1254
I0
sVEntity
p1255
I42
ssVKey
p1256
I1
sa(dp1257
VValue
p1258
(dp1259
VPlaceInSentence
p1260
I0
sVEntity
p1261
I50
ssVKey
p1262
I5
sasVSourceId
p1263
VManual sample data - LETA
p1264
sVTargetWord
p1265
NsVDocumentId
p1266
V5FE08E7F-66C0-413B-B68B-7E159E2B597B
p1267
sVFrameId
p1268
I1000031
sg38
I1
sVIsDeleted
p1269
I00
sVIsBlessed
p1270
I00
sVIsHidden
p1271
I00
sVFrameType
p1272
I6
sa(dp1273
VSentenceId
p1274
V
sVFrameData
p1275
(lp1276
(dp1277
VValue
p1278
(dp1279
VPlaceInSentence
p1280
I0
sVEntity
p1281
I42
ssVKey
p1282
I1
sa(dp1283
VValue
p1284
(dp1285
VPlaceInSentence
p1286
I0
sVEntity
p1287
I63
ssVKey
p1288
I2
sa(dp1289
VValue
p1290
(dp1291
VPlaceInSentence
p1292
I0
sVEntity
p1293
I54
ssVKey
p1294
I6
sasVSourceId
p1295
VManual sample data - kasjauns.lv
p1296
sVTargetWord
p1297
NsVDocumentId
p1298
V5D1D9D88-CDBB-4B32-BDE1-CE0DBBC7A18A
p1299
sVFrameId
p1300
I1000023
sg38
I1
sVIsDeleted
p1301
I00
sVIsBlessed
p1302
I00
sVIsHidden
p1303
I00
sVFrameType
p1304
I22
sa(dp1305
VSentenceId
p1306
V12
p1307
sVFrameData
p1308
(lp1309
(dp1310
VValue
p1311
(dp1312
VPlaceInSentence
p1313
I6
sVEntity
p1314
I76033
ssVKey
p1315
I3
sa(dp1316
VValue
p1317
(dp1318
VPlaceInSentence
p1319
I2
sVEntity
p1320
I76032
ssVKey
p1321
I7
sa(dp1322
VValue
p1323
(dp1324
VPlaceInSentence
p1325
I3
sVEntity
p1326
I42
ssVKey
p1327
I4
sasVSourceId
p1328
VPipeline parse at 2013-10-12T05:53:47.646417
p1329
sVTargetWord
p1330
NsVDocumentId
p1331
VB8D23453-E290-4AFA-BEF3-CD0C0CA9FD80
p1332
sVFrameId
p1333
I1264485
sg38
I1
sVIsDeleted
p1334
I00
sVIsBlessed
p1335
I00
sVIsHidden
p1336
I00
sVFrameType
p1337
I10
sa(dp1338
VSentenceId
p1339
V12
p1340
sVFrameData
p1341
(lp1342
(dp1343
VValue
p1344
(dp1345
VPlaceInSentence
p1346
I2
sVEntity
p1347
I75168
ssVKey
p1348
I6
sa(dp1349
VValue
p1350
(dp1351
VPlaceInSentence
p1352
I3
sVEntity
p1353
I42
ssVKey
p1354
I3
sa(dp1355
VValue
p1356
(dp1357
VPlaceInSentence
p1358
I28
sVEntity
p1359
I77981
ssVKey
p1360
I2
sasVSourceId
p1361
VPipeline parse at 2013-10-12T05:59:09.405654
p1362
sVTargetWord
p1363
NsVDocumentId
p1364
VECDEE338-F39E-4DE6-964A-5E86262FDF91
p1365
sVFrameId
p1366
I1265741
sg38
I1
sVIsDeleted
p1367
I00
sVIsBlessed
p1368
I00
sVIsHidden
p1369
I00
sVFrameType
p1370
I22
sa(dp1371
VSentenceId
p1372
V19
p1373
sVFrameData
p1374
(lp1375
(dp1376
VValue
p1377
(dp1378
VPlaceInSentence
p1379
I2
sVEntity
p1380
I75168
ssVKey
p1381
I6
sa(dp1382
VValue
p1383
(dp1384
VPlaceInSentence
p1385
I14
sVEntity
p1386
I42
ssVKey
p1387
I3
sa(dp1388
VValue
p1389
(dp1390
VPlaceInSentence
p1391
I26
sVEntity
p1392
I77981
ssVKey
p1393
I2
sasVSourceId
p1394
VPipeline parse at 2013-10-12T05:49:01.704861
p1395
sVTargetWord
p1396
NsVDocumentId
p1397
V94527745-D752-49A4-845D-0AFC090679B7
p1398
sVFrameId
p1399
I1263299
sg38
I1
sVIsDeleted
p1400
I00
sVIsBlessed
p1401
I00
sVIsHidden
p1402
I00
sVFrameType
p1403
I22
sa(dp1404
VSentenceId
p1405
V28
p1406
sVFrameData
p1407
(lp1408
(dp1409
VValue
p1410
(dp1411
VPlaceInSentence
p1412
I2
sVEntity
p1413
I75168
ssVKey
p1414
I6
sa(dp1415
VValue
p1416
(dp1417
VPlaceInSentence
p1418
I3
sVEntity
p1419
I42
ssVKey
p1420
I3
sa(dp1421
VValue
p1422
(dp1423
VPlaceInSentence
p1424
I28
sVEntity
p1425
I77981
ssVKey
p1426
I2
sasVSourceId
p1427
VPipeline parse at 2013-10-12T05:41:25.758911
p1428
sVTargetWord
p1429
NsVDocumentId
p1430
V6137E126-6852-4EAA-8524-3AD34DBBE243
p1431
sVFrameId
p1432
I1261521
sg38
I1
sVIsDeleted
p1433
I00
sVIsBlessed
p1434
I00
sVIsHidden
p1435
I00
sVFrameType
p1436
I22
sa(dp1437
VSentenceId
p1438
V13
p1439
sVFrameData
p1440
(lp1441
(dp1442
VValue
p1443
(dp1444
VPlaceInSentence
p1445
I2
sVEntity
p1446
I75168
ssVKey
p1447
I6
sa(dp1448
VValue
p1449
(dp1450
VPlaceInSentence
p1451
I3
sVEntity
p1452
I42
ssVKey
p1453
I3
sa(dp1454
VValue
p1455
(dp1456
VPlaceInSentence
p1457
I28
sVEntity
p1458
I77981
ssVKey
p1459
I2
sasVSourceId
p1460
VPipeline parse at 2013-10-12T05:55:20.191232
p1461
sVTargetWord
p1462
NsVDocumentId
p1463
VCB75BC31-8AF3-4DEE-8B3E-CB5463E646E8
p1464
sVFrameId
p1465
I1264843
sg38
I1
sVIsDeleted
p1466
I00
sVIsBlessed
p1467
I00
sVIsHidden
p1468
I00
sVFrameType
p1469
I22
sa(dp1470
VSentenceId
p1471
V21
p1472
sVFrameData
p1473
(lp1474
(dp1475
VValue
p1476
(dp1477
VPlaceInSentence
p1478
I2
sVEntity
p1479
I77269
ssVKey
p1480
I6
sa(dp1481
VValue
p1482
(dp1483
VPlaceInSentence
p1484
I3
sVEntity
p1485
I42
ssVKey
p1486
I3
sa(dp1487
VValue
p1488
(dp1489
VPlaceInSentence
p1490
I15
sVEntity
p1491
I75173
ssVKey
p1492
I2
sasVSourceId
p1493
VPipeline parse at 2013-10-12T05:53:43.013292
p1494
sVTargetWord
p1495
NsVDocumentId
p1496
VB887EC73-C03D-4096-9E28-C5A9B3287563
p1497
sVFrameId
p1498
I1264457
sg38
I1
sVIsDeleted
p1499
I00
sVIsBlessed
p1500
I00
sVIsHidden
p1501
I00
sVFrameType
p1502
I22
sa(dp1503
VSentenceId
p1504
V12
p1505
sVFrameData
p1506
(lp1507
(dp1508
VValue
p1509
(dp1510
VPlaceInSentence
p1511
I2
sVEntity
p1512
I75168
ssVKey
p1513
I6
sa(dp1514
VValue
p1515
(dp1516
VPlaceInSentence
p1517
I3
sVEntity
p1518
I42
ssVKey
p1519
I3
sa(dp1520
VValue
p1521
(dp1522
VPlaceInSentence
p1523
I28
sVEntity
p1524
I75176
ssVKey
p1525
I2
sasVSourceId
p1526
VPipeline parse at 2013-10-12T06:00:21.564292
p1527
sVTargetWord
p1528
NsVDocumentId
p1529
VF82644C0-95D7-44C7-AB1D-774E564FB8E1
p1530
sVFrameId
p1531
I1266072
sg38
I1
sVIsDeleted
p1532
I00
sVIsBlessed
p1533
I00
sVIsHidden
p1534
I00
sVFrameType
p1535
I22
sa(dp1536
VSentenceId
p1537
V9
sVFrameData
p1538
(lp1539
(dp1540
VValue
p1541
(dp1542
VPlaceInSentence
p1543
I0
sVEntity
p1544
I42
ssVKey
p1545
I1
sa(dp1546
VValue
p1547
(dp1548
VPlaceInSentence
p1549
I0
sVEntity
p1550
I63
ssVKey
p1551
I2
sa(dp1552
VValue
p1553
(dp1554
VPlaceInSentence
p1555
I0
sVEntity
p1556
I54
ssVKey
p1557
I6
sasVSourceId
p1558
VManual sample data - LETA
p1559
sVTargetWord
p1560
NsVDocumentId
p1561
V5FE08E7F-66C0-413B-B68B-7E159E2B597B
p1562
sVFrameId
p1563
I1000035
sg38
I1
sVIsDeleted
p1564
I00
sVIsBlessed
p1565
I00
sVIsHidden
p1566
I00
sVFrameType
p1567
I22
sa(dp1568
VSentenceId
p1569
V18
p1570
sVFrameData
p1571
(lp1572
(dp1573
VValue
p1574
(dp1575
VPlaceInSentence
p1576
I1
sVEntity
p1577
I75176
ssVKey
p1578
I6
sa(dp1579
VValue
p1580
(dp1581
VPlaceInSentence
p1582
I2
sVEntity
p1583
I42
ssVKey
p1584
I3
sa(dp1585
VValue
p1586
(dp1587
VPlaceInSentence
p1588
I14
sVEntity
p1589
I75176
ssVKey
p1590
I2
sasVSourceId
p1591
VPipeline parse at 2013-10-12T06:00:21.564825
p1592
sVTargetWord
p1593
NsVDocumentId
p1594
VF82644C0-95D7-44C7-AB1D-774E564FB8E1
p1595
sVFrameId
p1596
I1266079
sg38
I1
sVIsDeleted
p1597
I00
sVIsBlessed
p1598
I00
sVIsHidden
p1599
I00
sVFrameType
p1600
I22
sa(dp1601
VSentenceId
p1602
V10
p1603
sVFrameData
p1604
(lp1605
(dp1606
VValue
p1607
(dp1608
VPlaceInSentence
p1609
I0
sVEntity
p1610
I64
ssVKey
p1611
I2
sa(dp1612
VValue
p1613
(dp1614
VPlaceInSentence
p1615
I0
sVEntity
p1616
I65
ssVKey
p1617
I3
sa(dp1618
VValue
p1619
(dp1620
VPlaceInSentence
p1621
I0
sVEntity
p1622
I42
ssVKey
p1623
I1
sa(dp1624
VValue
p1625
(dp1626
VPlaceInSentence
p1627
I0
sVEntity
p1628
I55
ssVKey
p1629
I6
sasVSourceId
p1630
VManual sample data - LETA
p1631
sVTargetWord
p1632
NsVDocumentId
p1633
V5FE08E7F-66C0-413B-B68B-7E159E2B597B
p1634
sVFrameId
p1635
I1000036
sg38
I1
sVIsDeleted
p1636
I00
sVIsBlessed
p1637
I00
sVIsHidden
p1638
I00
sVFrameType
p1639
I13
sa(dp1640
VSentenceId
p1641
V3
sVFrameData
p1642
(lp1643
(dp1644
VValue
p1645
(dp1646
VPlaceInSentence
p1647
I0
sVEntity
p1648
I42
ssVKey
p1649
I1
sa(dp1650
VValue
p1651
(dp1652
VPlaceInSentence
p1653
I0
sVEntity
p1654
I67
ssVKey
p1655
I2
sasVSourceId
p1656
VManual sample data - LETA
p1657
sVTargetWord
p1658
NsVDocumentId
p1659
V5FE08E7F-66C0-413B-B68B-7E159E2B597B
p1660
sVFrameId
p1661
I1000039
sg38
I1
sVIsDeleted
p1662
I00
sVIsBlessed
p1663
I00
sVIsHidden
p1664
I00
sVFrameType
p1665
I7
sa(dp1666
VSentenceId
p1667
V13
p1668
sVFrameData
p1669
(lp1670
(dp1671
VValue
p1672
(dp1673
VPlaceInSentence
p1674
I2
sVEntity
p1675
I75168
ssVKey
p1676
I6
sa(dp1677
VValue
p1678
(dp1679
VPlaceInSentence
p1680
I3
sVEntity
p1681
I42
ssVKey
p1682
I3
sa(dp1683
VValue
p1684
(dp1685
VPlaceInSentence
p1686
I28
sVEntity
p1687
I75173
ssVKey
p1688
I2
sasVSourceId
p1689
VPipeline parse at 2013-10-12T05:41:07.643902
p1690
sVTargetWord
p1691
NsVDocumentId
p1692
V5FE08E7F-66C0-413B-B68B-7E159E2B597B
p1693
sVFrameId
p1694
I1261429
sg38
I1
sVIsDeleted
p1695
I00
sVIsBlessed
p1696
I00
sVIsHidden
p1697
I00
sVFrameType
p1698
I22
sa(dp1699
VSentenceId
p1700
V11
p1701
sVFrameData
p1702
(lp1703
(dp1704
VValue
p1705
(dp1706
VPlaceInSentence
p1707
I2
sVEntity
p1708
I75168
ssVKey
p1709
I6
sa(dp1710
VValue
p1711
(dp1712
VPlaceInSentence
p1713
I3
sVEntity
p1714
I42
ssVKey
p1715
I3
sa(dp1716
VValue
p1717
(dp1718
VPlaceInSentence
p1719
I24
sVEntity
p1720
I103510
ssVKey
p1721
I2
sasVSourceId
p1722
VPipeline parse at 2013-10-12T05:53:47.646115
p1723
sVTargetWord
p1724
NsVDocumentId
p1725
VB8D23453-E290-4AFA-BEF3-CD0C0CA9FD80
p1726
sVFrameId
p1727
I1264482
sg38
I1
sVIsDeleted
p1728
I00
sVIsBlessed
p1729
I00
sVIsHidden
p1730
I00
sVFrameType
p1731
I22
sa(dp1732
VSentenceId
p1733
V
sVFrameData
p1734
(lp1735
(dp1736
VValue
p1737
(dp1738
VPlaceInSentence
p1739
I0
sVEntity
p1740
I42
ssVKey
p1741
I1
sa(dp1742
VValue
p1743
(dp1744
VPlaceInSentence
p1745
I0
sVEntity
p1746
I61
ssVKey
p1747
I3
sa(dp1748
VValue
p1749
(dp1750
VPlaceInSentence
p1751
I0
sVEntity
p1752
I53
ssVKey
p1753
I9
sa(dp1754
VValue
p1755
(dp1756
VPlaceInSentence
p1757
I0
sVEntity
p1758
I62
ssVKey
p1759
I5
sa(dp1760
VValue
p1761
(dp1762
VPlaceInSentence
p1763
I0
sVEntity
p1764
I52
ssVKey
p1765
I8
sasVSourceId
p1766
VManual sample data - kasjauns.lv
p1767
sVTargetWord
p1768
NsVDocumentId
p1769
V5D1D9D88-CDBB-4B32-BDE1-CE0DBBC7A18A
p1770
sVFrameId
p1771
I1000026
sg38
I1
sVIsDeleted
p1772
I00
sVIsBlessed
p1773
I00
sVIsHidden
p1774
I00
sVFrameType
p1775
I9
sa(dp1776
VSentenceId
p1777
V
sVFrameData
p1778
(lp1779
(dp1780
VValue
p1781
(dp1782
VPlaceInSentence
p1783
I0
sVEntity
p1784
I64
ssVKey
p1785
I2
sa(dp1786
VValue
p1787
(dp1788
VPlaceInSentence
p1789
I0
sVEntity
p1790
I65
ssVKey
p1791
I3
sa(dp1792
VValue
p1793
(dp1794
VPlaceInSentence
p1795
I0
sVEntity
p1796
I42
ssVKey
p1797
I1
sa(dp1798
VValue
p1799
(dp1800
VPlaceInSentence
p1801
I0
sVEntity
p1802
I55
ssVKey
p1803
I6
sasVSourceId
p1804
VManual sample data - kasjauns.lv
p1805
sVTargetWord
p1806
NsVDocumentId
p1807
V5D1D9D88-CDBB-4B32-BDE1-CE0DBBC7A18A
p1808
sVFrameId
p1809
I1000024
sg38
I1
sVIsDeleted
p1810
I00
sVIsBlessed
p1811
I00
sVIsHidden
p1812
I00
sVFrameType
p1813
I13
sa(dp1814
VSentenceId
p1815
V14
p1816
sVFrameData
p1817
(lp1818
(dp1819
VValue
p1820
(dp1821
VPlaceInSentence
p1822
I2
sVEntity
p1823
I75168
ssVKey
p1824
I6
sa(dp1825
VValue
p1826
(dp1827
VPlaceInSentence
p1828
I3
sVEntity
p1829
I42
ssVKey
p1830
I3
sa(dp1831
VValue
p1832
(dp1833
VPlaceInSentence
p1834
I28
sVEntity
p1835
I75173
ssVKey
p1836
I2
sasVSourceId
p1837
VPipeline parse at 2013-10-12T05:51:38.074238
p1838
sVTargetWord
p1839
NsVDocumentId
p1840
VAAA023AD-AFC4-4E27-8C15-3E867A064C79
p1841
sVFrameId
p1842
I1263966
sg38
I1
sVIsDeleted
p1843
I00
sVIsBlessed
p1844
I00
sVIsHidden
p1845
I00
sVFrameType
p1846
I22
sa(dp1847
VSentenceId
p1848
V24
p1849
sVFrameData
p1850
(lp1851
(dp1852
VValue
p1853
(dp1854
VPlaceInSentence
p1855
I0
sVEntity
p1856
I49
ssVKey
p1857
I2
sa(dp1858
VValue
p1859
(dp1860
VPlaceInSentence
p1861
I0
sVEntity
p1862
I42
ssVKey
p1863
I1
sa(dp1864
VValue
p1865
(dp1866
VPlaceInSentence
p1867
I0
sVEntity
p1868
I50
ssVKey
p1869
I5
sasVSourceId
p1870
VManual sample data - kasjauns.lv
p1871
sVTargetWord
p1872
NsVDocumentId
p1873
V5D1D9D88-CDBB-4B32-BDE1-CE0DBBC7A18A
p1874
sVFrameId
p1875
I1000018
sg38
I1
sVIsDeleted
p1876
I00
sVIsBlessed
p1877
I00
sVIsHidden
p1878
I00
sVFrameType
p1879
I6
sa(dp1880
VSentenceId
p1881
V12
p1882
sVFrameData
p1883
(lp1884
(dp1885
VValue
p1886
(dp1887
VPlaceInSentence
p1888
I0
sVEntity
p1889
I42
ssVKey
p1890
I1
sa(dp1891
VValue
p1892
(dp1893
VPlaceInSentence
p1894
I0
sVEntity
p1895
I66
ssVKey
p1896
I2
sa(dp1897
VValue
p1898
(dp1899
VPlaceInSentence
p1900
I0
sVEntity
p1901
I56
ssVKey
p1902
I6
sasVSourceId
p1903
VManual sample data - LETA
p1904
sVTargetWord
p1905
NsVDocumentId
p1906
V5FE08E7F-66C0-413B-B68B-7E159E2B597B
p1907
sVFrameId
p1908
I1000037
sg38
I1
sVIsDeleted
p1909
I00
sVIsBlessed
p1910
I00
sVIsHidden
p1911
I00
sVFrameType
p1912
I22
sa(dp1913
VSentenceId
p1914
V11
p1915
sVFrameData
p1916
(lp1917
(dp1918
VValue
p1919
(dp1920
VPlaceInSentence
p1921
I2
sVEntity
p1922
I75168
ssVKey
p1923
I6
sa(dp1924
VValue
p1925
(dp1926
VPlaceInSentence
p1927
I3
sVEntity
p1928
I42
ssVKey
p1929
I3
sa(dp1930
VValue
p1931
(dp1932
VPlaceInSentence
p1933
I28
sVEntity
p1934
I75176
ssVKey
p1935
I2
sasVSourceId
p1936
VPipeline parse at 2013-10-12T05:37:27.424611
p1937
sVTargetWord
p1938
NsVDocumentId
p1939
V47879BB1-1963-41F3-AF3A-2AEF88930727
p1940
sVFrameId
p1941
I1260568
sg38
I1
sVIsDeleted
p1942
I00
sVIsBlessed
p1943
I00
sVIsHidden
p1944
I00
sVFrameType
p1945
I22
sa(dp1946
VSentenceId
p1947
V18
p1948
sVFrameData
p1949
(lp1950
(dp1951
VValue
p1952
(dp1953
VPlaceInSentence
p1954
I2
sVEntity
p1955
I77269
ssVKey
p1956
I6
sa(dp1957
VValue
p1958
(dp1959
VPlaceInSentence
p1960
I3
sVEntity
p1961
I42
ssVKey
p1962
I3
sa(dp1963
VValue
p1964
(dp1965
VPlaceInSentence
p1966
I15
sVEntity
p1967
I75173
ssVKey
p1968
I2
sasVSourceId
p1969
VPipeline parse at 2013-10-12T05:36:23.389885
p1970
sVTargetWord
p1971
NsVDocumentId
p1972
V3E638278-62DC-4E79-A405-A8AAADE41A36
p1973
sVFrameId
p1974
I1260225
sg38
I1
sVIsDeleted
p1975
I00
sVIsBlessed
p1976
I00
sVIsHidden
p1977
I00
sVFrameType
p1978
I22
sa(dp1979
VSentenceId
p1980
V9
sVFrameData
p1981
(lp1982
(dp1983
VValue
p1984
(dp1985
VPlaceInSentence
p1986
I2
sVEntity
p1987
I76032
ssVKey
p1988
I7
sa(dp1989
VValue
p1990
(dp1991
VPlaceInSentence
p1992
I22
sVEntity
p1993
I75173
ssVKey
p1994
I5
sa(dp1995
VValue
p1996
(dp1997
VPlaceInSentence
p1998
I3
sVEntity
p1999
I42
ssVKey
p2000
I4
sasVSourceId
p2001
VPipeline parse at 2013-10-12T05:34:20.436329
p2002
sVTargetWord
p2003
NsVDocumentId
p2004
V24F77CD9-871E-4276-B016-F0560984315D
p2005
sVFrameId
p2006
I1259732
sg38
I1
sVIsDeleted
p2007
I00
sVIsBlessed
p2008
I00
sVIsHidden
p2009
I00
sVFrameType
p2010
I10
sa(dp2011
VSentenceId
p2012
V11
p2013
sVFrameData
p2014
(lp2015
(dp2016
VValue
p2017
(dp2018
VPlaceInSentence
p2019
I2
sVEntity
p2020
I75168
ssVKey
p2021
I6
sa(dp2022
VValue
p2023
(dp2024
VPlaceInSentence
p2025
I3
sVEntity
p2026
I42
ssVKey
p2027
I3
sa(dp2028
VValue
p2029
(dp2030
VPlaceInSentence
p2031
I28
sVEntity
p2032
I75176
ssVKey
p2033
I2
sasVSourceId
p2034
VPipeline parse at 2013-10-12T05:37:27.424415
p2035
sVTargetWord
p2036
NsVDocumentId
p2037
V47879BB1-1963-41F3-AF3A-2AEF88930727
p2038
sVFrameId
p2039
I1260566
sg38
I1
sVIsDeleted
p2040
I00
sVIsBlessed
p2041
I00
sVIsHidden
p2042
I00
sVFrameType
p2043
I22
sa(dp2044
VSentenceId
p2045
V33
p2046
sVFrameData
p2047
(lp2048
(dp2049
VValue
p2050
(dp2051
VPlaceInSentence
p2052
I2
sVEntity
p2053
I75168
ssVKey
p2054
I6
sa(dp2055
VValue
p2056
(dp2057
VPlaceInSentence
p2058
I14
sVEntity
p2059
I42
ssVKey
p2060
I3
sa(dp2061
VValue
p2062
(dp2063
VPlaceInSentence
p2064
I26
sVEntity
p2065
I77981
ssVKey
p2066
I2
sasVSourceId
p2067
VPipeline parse at 2013-10-12T05:37:41.447078
p2068
sVTargetWord
p2069
NsVDocumentId
p2070
V4B3E74FD-7EDD-4960-9C03-5A1D28D7FD61
p2071
sVFrameId
p2072
I1260649
sg38
I1
sVIsDeleted
p2073
I00
sVIsBlessed
p2074
I00
sVIsHidden
p2075
I00
sVFrameType
p2076
I22
sa(dp2077
VSentenceId
p2078
V10
p2079
sVFrameData
p2080
(lp2081
(dp2082
VValue
p2083
(dp2084
VPlaceInSentence
p2085
I2
sVEntity
p2086
I75168
ssVKey
p2087
I6
sa(dp2088
VValue
p2089
(dp2090
VPlaceInSentence
p2091
I3
sVEntity
p2092
I42
ssVKey
p2093
I3
sa(dp2094
VValue
p2095
(dp2096
VPlaceInSentence
p2097
I28
sVEntity
p2098
I77981
ssVKey
p2099
I2
sasVSourceId
p2100
VPipeline parse at 2013-10-12T05:57:31.967821
p2101
sVTargetWord
p2102
NsVDocumentId
p2103
VDA670CBD-CB23-4180-96E0-7D72435EC76F
p2104
sVFrameId
p2105
I1265358
sg38
I1
sVIsDeleted
p2106
I00
sVIsBlessed
p2107
I00
sVIsHidden
p2108
I00
sVFrameType
p2109
I22
sa(dp2110
VSentenceId
p2111
V13
p2112
sVFrameData
p2113
(lp2114
(dp2115
VValue
p2116
(dp2117
VPlaceInSentence
p2118
I6
sVEntity
p2119
I76033
ssVKey
p2120
I3
sa(dp2121
VValue
p2122
(dp2123
VPlaceInSentence
p2124
I2
sVEntity
p2125
I76032
ssVKey
p2126
I7
sa(dp2127
VValue
p2128
(dp2129
VPlaceInSentence
p2130
I3
sVEntity
p2131
I42
ssVKey
p2132
I4
sasVSourceId
p2133
VPipeline parse at 2013-10-12T05:59:09.405837
p2134
sVTargetWord
p2135
NsVDocumentId
p2136
VECDEE338-F39E-4DE6-964A-5E86262FDF91
p2137
sVFrameId
p2138
I1265743
sg38
I1
sVIsDeleted
p2139
I00
sVIsBlessed
p2140
I00
sVIsHidden
p2141
I00
sVFrameType
p2142
I10
sa(dp2143
VSentenceId
p2144
V
sVFrameData
p2145
(lp2146
(dp2147
VValue
p2148
(dp2149
VPlaceInSentence
p2150
I0
sVEntity
p2151
I42
ssVKey
p2152
I1
sa(dp2153
VValue
p2154
(dp2155
VPlaceInSentence
p2156
I0
sVEntity
p2157
I68
ssVKey
p2158
I2
sasVSourceId
p2159
VManual sample data - kasjauns.lv
p2160
sVTargetWord
p2161
NsVDocumentId
p2162
V5D1D9D88-CDBB-4B32-BDE1-CE0DBBC7A18A
p2163
sVFrameId
p2164
I1000028
sg38
I1
sVIsDeleted
p2165
I00
sVIsBlessed
p2166
I00
sVIsHidden
p2167
I00
sVFrameType
p2168
I7
sa(dp2169
VSentenceId
p2170
V13
p2171
sVFrameData
p2172
(lp2173
(dp2174
VValue
p2175
(dp2176
VPlaceInSentence
p2177
I2
sVEntity
p2178
I75168
ssVKey
p2179
I6
sa(dp2180
VValue
p2181
(dp2182
VPlaceInSentence
p2183
I3
sVEntity
p2184
I42
ssVKey
p2185
I3
sa(dp2186
VValue
p2187
(dp2188
VPlaceInSentence
p2189
I28
sVEntity
p2190
I75173
ssVKey
p2191
I2
sasVSourceId
p2192
VPipeline parse at 2013-10-12T05:41:07.643972
p2193
sVTargetWord
p2194
NsVDocumentId
p2195
V5FE08E7F-66C0-413B-B68B-7E159E2B597B
p2196
sVFrameId
p2197
I1261430
sg38
I1
sVIsDeleted
p2198
I00
sVIsBlessed
p2199
I00
sVIsHidden
p2200
I00
sVFrameType
p2201
I22
sa(dp2202
VSentenceId
p2203
V35
p2204
sVFrameData
p2205
(lp2206
(dp2207
VValue
p2208
(dp2209
VPlaceInSentence
p2210
I2
sVEntity
p2211
I75168
ssVKey
p2212
I6
sa(dp2213
VValue
p2214
(dp2215
VPlaceInSentence
p2216
I3
sVEntity
p2217
I42
ssVKey
p2218
I3
sa(dp2219
VValue
p2220
(dp2221
VPlaceInSentence
p2222
I28
sVEntity
p2223
I75173
ssVKey
p2224
I2
sasVSourceId
p2225
VPipeline parse at 2013-10-12T05:57:57.996014
p2226
sVTargetWord
p2227
NsVDocumentId
p2228
VE3790803-5510-4A9A-A24B-D3A0D0EC4DD0
p2229
sVFrameId
p2230
I1265469
sg38
I1
sVIsDeleted
p2231
I00
sVIsBlessed
p2232
I00
sVIsHidden
p2233
I00
sVFrameType
p2234
I22
sa(dp2235
VSentenceId
p2236
V11
p2237
sVFrameData
p2238
(lp2239
(dp2240
VValue
p2241
(dp2242
VPlaceInSentence
p2243
I6
sVEntity
p2244
I76033
ssVKey
p2245
I3
sa(dp2246
VValue
p2247
(dp2248
VPlaceInSentence
p2249
I2
sVEntity
p2250
I76032
ssVKey
p2251
I7
sa(dp2252
VValue
p2253
(dp2254
VPlaceInSentence
p2255
I3
sVEntity
p2256
I42
ssVKey
p2257
I4
sasVSourceId
p2258
VPipeline parse at 2013-10-12T05:57:31.967914
p2259
sVTargetWord
p2260
NsVDocumentId
p2261
VDA670CBD-CB23-4180-96E0-7D72435EC76F
p2262
sVFrameId
p2263
I1265359
sg38
I1
sVIsDeleted
p2264
I00
sVIsBlessed
p2265
I00
sVIsHidden
p2266
I00
sVFrameType
p2267
I10
sa(dp2268
VSentenceId
p2269
V13
p2270
sVFrameData
p2271
(lp2272
(dp2273
VValue
p2274
(dp2275
VPlaceInSentence
p2276
I2
sVEntity
p2277
I75168
ssVKey
p2278
I6
sa(dp2279
VValue
p2280
(dp2281
VPlaceInSentence
p2282
I3
sVEntity
p2283
I42
ssVKey
p2284
I3
sa(dp2285
VValue
p2286
(dp2287
VPlaceInSentence
p2288
I28
sVEntity
p2289
I75173
ssVKey
p2290
I2
sasVSourceId
p2291
VPipeline parse at 2013-10-12T05:41:07.644043
p2292
sVTargetWord
p2293
NsVDocumentId
p2294
V5FE08E7F-66C0-413B-B68B-7E159E2B597B
p2295
sVFrameId
p2296
I1261431
sg38
I1
sVIsDeleted
p2297
I00
sVIsBlessed
p2298
I00
sVIsHidden
p2299
I00
sVFrameType
p2300
I22
sa(dp2301
VSentenceId
p2302
V14
p2303
sVFrameData
p2304
(lp2305
(dp2306
VValue
p2307
(dp2308
VPlaceInSentence
p2309
I2
sVEntity
p2310
I75168
ssVKey
p2311
I6
sa(dp2312
VValue
p2313
(dp2314
VPlaceInSentence
p2315
I3
sVEntity
p2316
I42
ssVKey
p2317
I3
sa(dp2318
VValue
p2319
(dp2320
VPlaceInSentence
p2321
I28
sVEntity
p2322
I75173
ssVKey
p2323
I2
sasVSourceId
p2324
VPipeline parse at 2013-10-12T05:51:38.074160
p2325
sVTargetWord
p2326
NsVDocumentId
p2327
VAAA023AD-AFC4-4E27-8C15-3E867A064C79
p2328
sVFrameId
p2329
I1263965
sg38
I1
sVIsDeleted
p2330
I00
sVIsBlessed
p2331
I00
sVIsHidden
p2332
I00
sVFrameType
p2333
I22
sa(dp2334
VSentenceId
p2335
V15
p2336
sVFrameData
p2337
(lp2338
(dp2339
VValue
p2340
(dp2341
VPlaceInSentence
p2342
I6
sVEntity
p2343
I76033
ssVKey
p2344
I3
sa(dp2345
VValue
p2346
(dp2347
VPlaceInSentence
p2348
I2
sVEntity
p2349
I76032
ssVKey
p2350
I7
sa(dp2351
VValue
p2352
(dp2353
VPlaceInSentence
p2354
I3
sVEntity
p2355
I42
ssVKey
p2356
I4
sasVSourceId
p2357
VPipeline parse at 2013-10-12T05:51:38.074313
p2358
sVTargetWord
p2359
NsVDocumentId
p2360
VAAA023AD-AFC4-4E27-8C15-3E867A064C79
p2361
sVFrameId
p2362
I1263967
sg38
I1
sVIsDeleted
p2363
I00
sVIsBlessed
p2364
I00
sVIsHidden
p2365
I00
sVFrameType
p2366
I10
sa(dp2367
VSentenceId
p2368
V
sVFrameData
p2369
(lp2370
(dp2371
VValue
p2372
(dp2373
VPlaceInSentence
p2374
I0
sVEntity
p2375
I42
ssVKey
p2376
I2
sa(dp2377
VValue
p2378
(dp2379
VPlaceInSentence
p2380
I0
sVEntity
p2381
I15
ssVKey
p2382
I4
sa(dp2383
VValue
p2384
(dp2385
VPlaceInSentence
p2386
I0
sVEntity
p2387
I43
ssVKey
p2388
I1
sasVSourceId
p2389
VManual sample data - CV
p2390
sVTargetWord
p2391
NsVDocumentId
p2392
VF6A8C3B7-AC39-11D4-9D85-00A0C9CFC2DB
p2393
sVFrameId
p2394
I1000042
sg38
I1
sVIsDeleted
p2395
I00
sVIsBlessed
p2396
I00
sVIsHidden
p2397
I00
sVFrameType
p2398
I3
sa(dp2399
VSentenceId
p2400
V12
p2401
sVFrameData
p2402
(lp2403
(dp2404
VValue
p2405
(dp2406
VPlaceInSentence
p2407
I2
sVEntity
p2408
I75168
ssVKey
p2409
I6
sa(dp2410
VValue
p2411
(dp2412
VPlaceInSentence
p2413
I3
sVEntity
p2414
I42
ssVKey
p2415
I3
sa(dp2416
VValue
p2417
(dp2418
VPlaceInSentence
p2419
I28
sVEntity
p2420
I75173
ssVKey
p2421
I2
sasVSourceId
p2422
VPipeline parse at 2013-10-12T05:36:23.389336
p2423
sVTargetWord
p2424
NsVDocumentId
p2425
V3E638278-62DC-4E79-A405-A8AAADE41A36
p2426
sVFrameId
p2427
I1260218
sg38
I1
sVIsDeleted
p2428
I00
sVIsBlessed
p2429
I00
sVIsHidden
p2430
I00
sVFrameType
p2431
I22
sa(dp2432
VSentenceId
p2433
V40
p2434
sVFrameData
p2435
(lp2436
(dp2437
VValue
p2438
(dp2439
VPlaceInSentence
p2440
I2
sVEntity
p2441
I75168
ssVKey
p2442
I6
sa(dp2443
VValue
p2444
(dp2445
VPlaceInSentence
p2446
I3
sVEntity
p2447
I42
ssVKey
p2448
I3
sa(dp2449
VValue
p2450
(dp2451
VPlaceInSentence
p2452
I28
sVEntity
p2453
I75173
ssVKey
p2454
I2
sasVSourceId
p2455
VPipeline parse at 2013-10-12T05:43:25.735044
p2456
sVTargetWord
p2457
NsVDocumentId
p2458
V7320BA22-4B40-4A6E-8516-99A1365FC9EC
p2459
sVFrameId
p2460
I1262014
sg38
I1
sVIsDeleted
p2461
I00
sVIsBlessed
p2462
I00
sVIsHidden
p2463
I00
sVFrameType
p2464
I22
sa(dp2465
VSentenceId
p2466
V40
p2467
sVFrameData
p2468
(lp2469
(dp2470
VValue
p2471
(dp2472
VPlaceInSentence
p2473
I2
sVEntity
p2474
I75168
ssVKey
p2475
I6
sa(dp2476
VValue
p2477
(dp2478
VPlaceInSentence
p2479
I3
sVEntity
p2480
I42
ssVKey
p2481
I3
sa(dp2482
VValue
p2483
(dp2484
VPlaceInSentence
p2485
I28
sVEntity
p2486
I75173
ssVKey
p2487
I2
sasVSourceId
p2488
VPipeline parse at 2013-10-12T05:43:25.735148
p2489
sVTargetWord
p2490
NsVDocumentId
p2491
V7320BA22-4B40-4A6E-8516-99A1365FC9EC
p2492
sVFrameId
p2493
I1262015
sg38
I1
sVIsDeleted
p2494
I00
sVIsBlessed
p2495
I00
sVIsHidden
p2496
I00
sVFrameType
p2497
I22
sa(dp2498
VSentenceId
p2499
V28
p2500
sVFrameData
p2501
(lp2502
(dp2503
VValue
p2504
(dp2505
VPlaceInSentence
p2506
I2
sVEntity
p2507
I75168
ssVKey
p2508
I6
sa(dp2509
VValue
p2510
(dp2511
VPlaceInSentence
p2512
I3
sVEntity
p2513
I42
ssVKey
p2514
I3
sa(dp2515
VValue
p2516
(dp2517
VPlaceInSentence
p2518
I28
sVEntity
p2519
I77981
ssVKey
p2520
I2
sasVSourceId
p2521
VPipeline parse at 2013-10-12T05:37:41.446672
p2522
sVTargetWord
p2523
NsVDocumentId
p2524
V4B3E74FD-7EDD-4960-9C03-5A1D28D7FD61
p2525
sVFrameId
p2526
I1260644
sg38
I1
sVIsDeleted
p2527
I00
sVIsBlessed
p2528
I00
sVIsHidden
p2529
I00
sVFrameType
p2530
I22
sa(dp2531
VSentenceId
p2532
V14
p2533
sVFrameData
p2534
(lp2535
(dp2536
VValue
p2537
(dp2538
VPlaceInSentence
p2539
I2
sVEntity
p2540
I75168
ssVKey
p2541
I6
sa(dp2542
VValue
p2543
(dp2544
VPlaceInSentence
p2545
I3
sVEntity
p2546
I42
ssVKey
p2547
I3
sa(dp2548
VValue
p2549
(dp2550
VPlaceInSentence
p2551
I24
sVEntity
p2552
I103510
ssVKey
p2553
I2
sasVSourceId
p2554
VPipeline parse at 2013-10-12T05:49:01.704363
p2555
sVTargetWord
p2556
NsVDocumentId
p2557
V94527745-D752-49A4-845D-0AFC090679B7
p2558
sVFrameId
p2559
I1263293
sg38
I1
sVIsDeleted
p2560
I00
sVIsBlessed
p2561
I00
sVIsHidden
p2562
I00
sVFrameType
p2563
I22
sa(dp2564
VSentenceId
p2565
V15
p2566
sVFrameData
p2567
(lp2568
(dp2569
VValue
p2570
(dp2571
VPlaceInSentence
p2572
I7
sVEntity
p2573
I118256
ssVKey
p2574
I5
sa(dp2575
VValue
p2576
(dp2577
VPlaceInSentence
p2578
I19
sVEntity
p2579
I42
ssVKey
p2580
I4
sasVSourceId
p2581
VPipeline parse at 2013-10-12T05:49:16.623024
p2582
sVTargetWord
p2583
NsVDocumentId
p2584
V96DFB5C8-E331-11D6-B395-004005A4B5EE
p2585
sVFrameId
p2586
I1263373
sg38
I1
sVIsDeleted
p2587
I00
sVIsBlessed
p2588
I00
sVIsHidden
p2589
I00
sVFrameType
p2590
I10
sa(dp2591
VSentenceId
p2592
V11
p2593
sVFrameData
p2594
(lp2595
(dp2596
VValue
p2597
(dp2598
VPlaceInSentence
p2599
I2
sVEntity
p2600
I75168
ssVKey
p2601
I6
sa(dp2602
VValue
p2603
(dp2604
VPlaceInSentence
p2605
I3
sVEntity
p2606
I42
ssVKey
p2607
I3
sa(dp2608
VValue
p2609
(dp2610
VPlaceInSentence
p2611
I24
sVEntity
p2612
I103510
ssVKey
p2613
I2
sasVSourceId
p2614
VPipeline parse at 2013-10-12T05:53:47.646327
p2615
sVTargetWord
p2616
NsVDocumentId
p2617
VB8D23453-E290-4AFA-BEF3-CD0C0CA9FD80
p2618
sVFrameId
p2619
I1264484
sg38
I1
sVIsDeleted
p2620
I00
sVIsBlessed
p2621
I00
sVIsHidden
p2622
I00
sVFrameType
p2623
I22
sa(dp2624
VSentenceId
p2625
V5
sVFrameData
p2626
(lp2627
(dp2628
VValue
p2629
(dp2630
VPlaceInSentence
p2631
I0
sVEntity
p2632
I51
ssVKey
p2633
I5
sa(dp2634
VValue
p2635
(dp2636
VPlaceInSentence
p2637
I0
sVEntity
p2638
I57
ssVKey
p2639
I2
sa(dp2640
VValue
p2641
(dp2642
VPlaceInSentence
p2643
I0
sVEntity
p2644
I42
ssVKey
p2645
I1
sa(dp2646
VValue
p2647
(dp2648
VPlaceInSentence
p2649
I0
sVEntity
p2650
I58
ssVKey
p2651
I3
sasVSourceId
p2652
VManual sample data - LETA
p2653
sVTargetWord
p2654
NsVDocumentId
p2655
V5FE08E7F-66C0-413B-B68B-7E159E2B597B
p2656
sVFrameId
p2657
I1000033
sg38
I1
sVIsDeleted
p2658
I00
sVIsBlessed
p2659
I00
sVIsHidden
p2660
I00
sVFrameType
p2661
I6
sa(dp2662
VSentenceId
p2663
V29
p2664
sVFrameData
p2665
(lp2666
(dp2667
VValue
p2668
(dp2669
VPlaceInSentence
p2670
I6
sVEntity
p2671
I76033
ssVKey
p2672
I3
sa(dp2673
VValue
p2674
(dp2675
VPlaceInSentence
p2676
I2
sVEntity
p2677
I76032
ssVKey
p2678
I7
sa(dp2679
VValue
p2680
(dp2681
VPlaceInSentence
p2682
I3
sVEntity
p2683
I42
ssVKey
p2684
I4
sasVSourceId
p2685
VPipeline parse at 2013-10-12T05:37:41.446767
p2686
sVTargetWord
p2687
NsVDocumentId
p2688
V4B3E74FD-7EDD-4960-9C03-5A1D28D7FD61
p2689
sVFrameId
p2690
I1260645
sg38
I1
sVIsDeleted
p2691
I00
sVIsBlessed
p2692
I00
sVIsHidden
p2693
I00
sVFrameType
p2694
I10
sa(dp2695
VSentenceId
p2696
V13
p2697
sVFrameData
p2698
(lp2699
(dp2700
VValue
p2701
(dp2702
VPlaceInSentence
p2703
I2
sVEntity
p2704
I75168
ssVKey
p2705
I6
sa(dp2706
VValue
p2707
(dp2708
VPlaceInSentence
p2709
I3
sVEntity
p2710
I42
ssVKey
p2711
I3
sa(dp2712
VValue
p2713
(dp2714
VPlaceInSentence
p2715
I28
sVEntity
p2716
I77981
ssVKey
p2717
I2
sasVSourceId
p2718
VPipeline parse at 2013-10-12T05:55:20.191331
p2719
sVTargetWord
p2720
NsVDocumentId
p2721
VCB75BC31-8AF3-4DEE-8B3E-CB5463E646E8
p2722
sVFrameId
p2723
I1264844
sg38
I1
sVIsDeleted
p2724
I00
sVIsBlessed
p2725
I00
sVIsHidden
p2726
I00
sVFrameType
p2727
I22
sa(dp2728
VSentenceId
p2729
V16
p2730
sVFrameData
p2731
(lp2732
(dp2733
VValue
p2734
(dp2735
VPlaceInSentence
p2736
I2
sVEntity
p2737
I75168
ssVKey
p2738
I6
sa(dp2739
VValue
p2740
(dp2741
VPlaceInSentence
p2742
I3
sVEntity
p2743
I42
ssVKey
p2744
I3
sa(dp2745
VValue
p2746
(dp2747
VPlaceInSentence
p2748
I15
sVEntity
p2749
I75173
ssVKey
p2750
I2
sasVSourceId
p2751
VPipeline parse at 2013-10-12T06:00:37.754865
p2752
sVTargetWord
p2753
NsVDocumentId
p2754
VF9A78A57-9809-49BE-BC80-30731A1F5107
p2755
sVFrameId
p2756
I1266154
sg38
I1
sVIsDeleted
p2757
I00
sVIsBlessed
p2758
I00
sVIsHidden
p2759
I00
sVFrameType
p2760
I22
sa(dp2761
VSentenceId
p2762
V6
sVFrameData
p2763
(lp2764
(dp2765
VValue
p2766
(dp2767
VPlaceInSentence
p2768
I0
sVEntity
p2769
I42
ssVKey
p2770
I1
sa(dp2771
VValue
p2772
(dp2773
VPlaceInSentence
p2774
I0
sVEntity
p2775
I47
ssVKey
p2776
I3
sa(dp2777
VValue
p2778
(dp2779
VPlaceInSentence
p2780
I0
sVEntity
p2781
I48
ssVKey
p2782
I2
sasVSourceId
p2783
VManual sample data - LETA
p2784
sVTargetWord
p2785
NsVDocumentId
p2786
V5FE08E7F-66C0-413B-B68B-7E159E2B597B
p2787
sVFrameId
p2788
I1000032
sg38
I1
sVIsDeleted
p2789
I00
sVIsBlessed
p2790
I00
sVIsHidden
p2791
I00
sVFrameType
p2792
I9
sa(dp2793
VSentenceId
p2794
V12
p2795
sVFrameData
p2796
(lp2797
(dp2798
VValue
p2799
(dp2800
VPlaceInSentence
p2801
I2
sVEntity
p2802
I75168
ssVKey
p2803
I6
sa(dp2804
VValue
p2805
(dp2806
VPlaceInSentence
p2807
I3
sVEntity
p2808
I42
ssVKey
p2809
I3
sa(dp2810
VValue
p2811
(dp2812
VPlaceInSentence
p2813
I28
sVEntity
p2814
I75173
ssVKey
p2815
I2
sasVSourceId
p2816
VPipeline parse at 2013-10-12T05:36:23.389238
p2817
sVTargetWord
p2818
NsVDocumentId
p2819
V3E638278-62DC-4E79-A405-A8AAADE41A36
p2820
sVFrameId
p2821
I1260217
sg38
I1
sVIsDeleted
p2822
I00
sVIsBlessed
p2823
I00
sVIsHidden
p2824
I00
sVFrameType
p2825
I22
sa(dp2826
VSentenceId
p2827
V4
sVFrameData
p2828
(lp2829
(dp2830
VValue
p2831
(dp2832
VPlaceInSentence
p2833
I0
sVEntity
p2834
I46
ssVKey
p2835
I4
sa(dp2836
VValue
p2837
(dp2838
VPlaceInSentence
p2839
I0
sVEntity
p2840
I44
ssVKey
p2841
I2
sa(dp2842
VValue
p2843
(dp2844
VPlaceInSentence
p2845
I0
sVEntity
p2846
I45
ssVKey
p2847
I3
sa(dp2848
VValue
p2849
(dp2850
VPlaceInSentence
p2851
I0
sVEntity
p2852
I42
ssVKey
p2853
I1
sasVSourceId
p2854
VManual sample data - LETA
p2855
sVTargetWord
p2856
NsVDocumentId
p2857
V5FE08E7F-66C0-413B-B68B-7E159E2B597B
p2858
sVFrameId
p2859
I1000030
sg38
I1
sVIsDeleted
p2860
I00
sVIsBlessed
p2861
I00
sVIsHidden
p2862
I00
sVFrameType
p2863
I0
sa(dp2864
VSentenceId
p2865
V13
p2866
sVFrameData
p2867
(lp2868
(dp2869
VValue
p2870
(dp2871
VPlaceInSentence
p2872
I6
sVEntity
p2873
I76033
ssVKey
p2874
I3
sa(dp2875
VValue
p2876
(dp2877
VPlaceInSentence
p2878
I2
sVEntity
p2879
I76032
ssVKey
p2880
I7
sa(dp2881
VValue
p2882
(dp2883
VPlaceInSentence
p2884
I3
sVEntity
p2885
I42
ssVKey
p2886
I4
sasVSourceId
p2887
VPipeline parse at 2013-10-12T05:49:13.643477
p2888
sVTargetWord
p2889
NsVDocumentId
p2890
V9673721B-3D8F-4C43-AD0D-38355479F7AA
p2891
sVFrameId
p2892
I1263359
sg38
I1
sVIsDeleted
p2893
I00
sVIsBlessed
p2894
I00
sVIsHidden
p2895
I00
sVFrameType
p2896
I10
sa(dp2897
VSentenceId
p2898
V21
p2899
sVFrameData
p2900
(lp2901
(dp2902
VValue
p2903
(dp2904
VPlaceInSentence
p2905
I2
sVEntity
p2906
I75168
ssVKey
p2907
I7
sa(dp2908
VValue
p2909
(dp2910
VPlaceInSentence
p2911
I3
sVEntity
p2912
I42
ssVKey
p2913
I4
sasVSourceId
p2914
VPipeline parse at 2013-10-12T05:37:23.035382
p2915
sVTargetWord
p2916
NsVDocumentId
p2917
V4746B974-CD6D-4F5C-86AE-F78355D893D8
p2918
sVFrameId
p2919
I1260515
sg38
I1
sVIsDeleted
p2920
I00
sVIsBlessed
p2921
I00
sVIsHidden
p2922
I00
sVFrameType
p2923
I10
sa(dp2924
VSentenceId
p2925
V12
p2926
sVFrameData
p2927
(lp2928
(dp2929
VValue
p2930
(dp2931
VPlaceInSentence
p2932
I2
sVEntity
p2933
I75168
ssVKey
p2934
I6
sa(dp2935
VValue
p2936
(dp2937
VPlaceInSentence
p2938
I3
sVEntity
p2939
I42
ssVKey
p2940
I3
sa(dp2941
VValue
p2942
(dp2943
VPlaceInSentence
p2944
I28
sVEntity
p2945
I75173
ssVKey
p2946
I2
sasVSourceId
p2947
VPipeline parse at 2013-10-12T05:49:13.643382
p2948
sVTargetWord
p2949
NsVDocumentId
p2950
V9673721B-3D8F-4C43-AD0D-38355479F7AA
p2951
sVFrameId
p2952
I1263358
sg38
I1
sVIsDeleted
p2953
I00
sVIsBlessed
p2954
I00
sVIsHidden
p2955
I00
sVFrameType
p2956
I22
sa(dp2957
VSentenceId
p2958
V15
p2959
sVFrameData
p2960
(lp2961
(dp2962
VValue
p2963
(dp2964
VPlaceInSentence
p2965
I2
sVEntity
p2966
I75168
ssVKey
p2967
I6
sa(dp2968
VValue
p2969
(dp2970
VPlaceInSentence
p2971
I14
sVEntity
p2972
I42
ssVKey
p2973
I3
sa(dp2974
VValue
p2975
(dp2976
VPlaceInSentence
p2977
I26
sVEntity
p2978
I77981
ssVKey
p2979
I2
sasVSourceId
p2980
VPipeline parse at 2013-10-12T05:57:31.968230
p2981
sVTargetWord
p2982
NsVDocumentId
p2983
VDA670CBD-CB23-4180-96E0-7D72435EC76F
p2984
sVFrameId
p2985
I1265363
sg38
I1
sVIsDeleted
p2986
I00
sVIsBlessed
p2987
I00
sVIsHidden
p2988
I00
sVFrameType
p2989
I22
sa(dp2990
VSentenceId
p2991
V
sVFrameData
p2992
(lp2993
(dp2994
VValue
p2995
(dp2996
VPlaceInSentence
p2997
I0
sVEntity
p2998
I42
ssVKey
p2999
I1
sa(dp3000
VValue
p3001
(dp3002
VPlaceInSentence
p3003
I0
sVEntity
p3004
I66
ssVKey
p3005
I2
sa(dp3006
VValue
p3007
(dp3008
VPlaceInSentence
p3009
I0
sVEntity
p3010
I56
ssVKey
p3011
I6
sasVSourceId
p3012
VManual sample data - kasjauns.lv
p3013
sVTargetWord
p3014
NsVDocumentId
p3015
V5D1D9D88-CDBB-4B32-BDE1-CE0DBBC7A18A
p3016
sVFrameId
p3017
I1000025
sg38
I1
sVIsDeleted
p3018
I00
sVIsBlessed
p3019
I00
sVIsHidden
p3020
I00
sVFrameType
p3021
I22
sa(dp3022
VSentenceId
p3023
V11
p3024
sVFrameData
p3025
(lp3026
(dp3027
VValue
p3028
(dp3029
VPlaceInSentence
p3030
I2
sVEntity
p3031
I75168
ssVKey
p3032
I6
sa(dp3033
VValue
p3034
(dp3035
VPlaceInSentence
p3036
I4
sVEntity
p3037
I42
ssVKey
p3038
I3
sa(dp3039
VValue
p3040
(dp3041
VPlaceInSentence
p3042
I28
sVEntity
p3043
I77981
ssVKey
p3044
I2
sasVSourceId
p3045
VPipeline parse at 2013-10-12T05:37:05.981778
p3046
sVTargetWord
p3047
NsVDocumentId
p3048
V46B2FE56-71AC-4E64-9997-BB68103D5099
p3049
sVFrameId
p3050
I1260440
sg38
I1
sVIsDeleted
p3051
I00
sVIsBlessed
p3052
I00
sVIsHidden
p3053
I00
sVFrameType
p3054
I22
sa(dp3055
VSentenceId
p3056
V12
p3057
sVFrameData
p3058
(lp3059
(dp3060
VValue
p3061
(dp3062
VPlaceInSentence
p3063
I2
sVEntity
p3064
I75168
ssVKey
p3065
I6
sa(dp3066
VValue
p3067
(dp3068
VPlaceInSentence
p3069
I3
sVEntity
p3070
I42
ssVKey
p3071
I3
sa(dp3072
VValue
p3073
(dp3074
VPlaceInSentence
p3075
I28
sVEntity
p3076
I75176
ssVKey
p3077
I2
sasVSourceId
p3078
VPipeline parse at 2013-10-12T06:00:21.564388
p3079
sVTargetWord
p3080
NsVDocumentId
p3081
VF82644C0-95D7-44C7-AB1D-774E564FB8E1
p3082
sVFrameId
p3083
I1266073
sg38
I1
sVIsDeleted
p3084
I00
sVIsBlessed
p3085
I00
sVIsHidden
p3086
I00
sVFrameType
p3087
I22
sa(dp3088
VSentenceId
p3089
V46
p3090
sVFrameData
p3091
(lp3092
(dp3093
VValue
p3094
(dp3095
VPlaceInSentence
p3096
I2
sVEntity
p3097
I75168
ssVKey
p3098
I6
sa(dp3099
VValue
p3100
(dp3101
VPlaceInSentence
p3102
I3
sVEntity
p3103
I42
ssVKey
p3104
I3
sa(dp3105
VValue
p3106
(dp3107
VPlaceInSentence
p3108
I15
sVEntity
p3109
I75173
ssVKey
p3110
I2
sasVSourceId
p3111
VPipeline parse at 2013-10-12T05:43:25.735724
p3112
sVTargetWord
p3113
NsVDocumentId
p3114
V7320BA22-4B40-4A6E-8516-99A1365FC9EC
p3115
sVFrameId
p3116
I1262022
sg38
I1
sVIsDeleted
p3117
I00
sVIsBlessed
p3118
I00
sVIsHidden
p3119
I00
sVFrameType
p3120
I22
sa(dp3121
VSentenceId
p3122
V12
p3123
sVFrameData
p3124
(lp3125
(dp3126
VValue
p3127
(dp3128
VPlaceInSentence
p3129
I2
sVEntity
p3130
I75168
ssVKey
p3131
I6
sa(dp3132
VValue
p3133
(dp3134
VPlaceInSentence
p3135
I3
sVEntity
p3136
I42
ssVKey
p3137
I3
sa(dp3138
VValue
p3139
(dp3140
VPlaceInSentence
p3141
I28
sVEntity
p3142
I77981
ssVKey
p3143
I2
sasVSourceId
p3144
VPipeline parse at 2013-10-12T05:59:09.405749
p3145
sVTargetWord
p3146
NsVDocumentId
p3147
VECDEE338-F39E-4DE6-964A-5E86262FDF91
p3148
sVFrameId
p3149
I1265742
sg38
I1
sVIsDeleted
p3150
I00
sVIsBlessed
p3151
I00
sVIsHidden
p3152
I00
sVFrameType
p3153
I22
sa(dp3154
VSentenceId
p3155
V23
p3156
sVFrameData
p3157
(lp3158
(dp3159
VValue
p3160
(dp3161
VPlaceInSentence
p3162
I0
sVEntity
p3163
I42
ssVKey
p3164
I1
sa(dp3165
VValue
p3166
(dp3167
VPlaceInSentence
p3168
I0
sVEntity
p3169
I47
ssVKey
p3170
I3
sa(dp3171
VValue
p3172
(dp3173
VPlaceInSentence
p3174
I0
sVEntity
p3175
I48
ssVKey
p3176
I2
sasVSourceId
p3177
VManual sample data - kasjauns.lv
p3178
sVTargetWord
p3179
NsVDocumentId
p3180
V5D1D9D88-CDBB-4B32-BDE1-CE0DBBC7A18A
p3181
sVFrameId
p3182
I1000019
sg38
I1
sVIsDeleted
p3183
I00
sVIsBlessed
p3184
I00
sVIsHidden
p3185
I00
sVFrameType
p3186
I9
sa(dp3187
VSentenceId
p3188
V12
p3189
sVFrameData
p3190
(lp3191
(dp3192
VValue
p3193
(dp3194
VPlaceInSentence
p3195
I6
sVEntity
p3196
I76033
ssVKey
p3197
I3
sa(dp3198
VValue
p3199
(dp3200
VPlaceInSentence
p3201
I2
sVEntity
p3202
I76032
ssVKey
p3203
I7
sa(dp3204
VValue
p3205
(dp3206
VPlaceInSentence
p3207
I3
sVEntity
p3208
I42
ssVKey
p3209
I4
sasVSourceId
p3210
VPipeline parse at 2013-10-12T05:37:27.424703
p3211
sVTargetWord
p3212
NsVDocumentId
p3213
V47879BB1-1963-41F3-AF3A-2AEF88930727
p3214
sVFrameId
p3215
I1260569
sg38
I1
sVIsDeleted
p3216
I00
sVIsBlessed
p3217
I00
sVIsHidden
p3218
I00
sVFrameType
p3219
I10
sa(dp3220
VSentenceId
p3221
V11
p3222
sVFrameData
p3223
(lp3224
(dp3225
VValue
p3226
(dp3227
VPlaceInSentence
p3228
I2
sVEntity
p3229
I75168
ssVKey
p3230
I6
sa(dp3231
VValue
p3232
(dp3233
VPlaceInSentence
p3234
I4
sVEntity
p3235
I42
ssVKey
p3236
I3
sa(dp3237
VValue
p3238
(dp3239
VPlaceInSentence
p3240
I28
sVEntity
p3241
I77981
ssVKey
p3242
I2
sasVSourceId
p3243
VPipeline parse at 2013-10-12T05:37:05.981684
p3244
sVTargetWord
p3245
NsVDocumentId
p3246
V46B2FE56-71AC-4E64-9997-BB68103D5099
p3247
sVFrameId
p3248
I1260439
sg38
I1
sVIsDeleted
p3249
I00
sVIsBlessed
p3250
I00
sVIsHidden
p3251
I00
sVFrameType
p3252
I22
sa(dp3253
VSentenceId
p3254
V17
p3255
sVFrameData
p3256
(lp3257
(dp3258
VValue
p3259
(dp3260
VPlaceInSentence
p3261
I9
sVEntity
p3262
I75392
ssVKey
p3263
I6
sa(dp3264
VValue
p3265
(dp3266
VPlaceInSentence
p3267
I13
sVEntity
p3268
I75392
ssVKey
p3269
I5
sa(dp3270
VValue
p3271
(dp3272
VPlaceInSentence
p3273
I3
sVEntity
p3274
I42
ssVKey
p3275
I3
sasVSourceId
p3276
VPipeline parse at 2013-10-12T05:32:13.118355
p3277
sVTargetWord
p3278
NsVDocumentId
p3279
V137F90AD-D458-41A7-B6F3-1FD1479A77AD
p3280
sVFrameId
p3281
I1259195
sg38
I1
sVIsDeleted
p3282
I00
sVIsBlessed
p3283
I00
sVIsHidden
p3284
I00
sVFrameType
p3285
I22
sa(dp3286
VSentenceId
p3287
V13
p3288
sVFrameData
p3289
(lp3290
(dp3291
VValue
p3292
(dp3293
VPlaceInSentence
p3294
I2
sVEntity
p3295
I75168
ssVKey
p3296
I6
sa(dp3297
VValue
p3298
(dp3299
VPlaceInSentence
p3300
I3
sVEntity
p3301
I42
ssVKey
p3302
I3
sa(dp3303
VValue
p3304
(dp3305
VPlaceInSentence
p3306
I28
sVEntity
p3307
I77981
ssVKey
p3308
I2
sasVSourceId
p3309
VPipeline parse at 2013-10-12T05:55:20.191430
p3310
sVTargetWord
p3311
NsVDocumentId
p3312
VCB75BC31-8AF3-4DEE-8B3E-CB5463E646E8
p3313
sVFrameId
p3314
I1264845
sg38
I1
sVIsDeleted
p3315
I00
sVIsBlessed
p3316
I00
sVIsHidden
p3317
I00
sVFrameType
p3318
I22
sa(dp3319
VSentenceId
p3320
V14
p3321
sVFrameData
p3322
(lp3323
(dp3324
VValue
p3325
(dp3326
VPlaceInSentence
p3327
I6
sVEntity
p3328
I76033
ssVKey
p3329
I3
sa(dp3330
VValue
p3331
(dp3332
VPlaceInSentence
p3333
I2
sVEntity
p3334
I76032
ssVKey
p3335
I7
sa(dp3336
VValue
p3337
(dp3338
VPlaceInSentence
p3339
I3
sVEntity
p3340
I42
ssVKey
p3341
I4
sasVSourceId
p3342
VPipeline parse at 2013-10-12T05:55:20.191525
p3343
sVTargetWord
p3344
NsVDocumentId
p3345
VCB75BC31-8AF3-4DEE-8B3E-CB5463E646E8
p3346
sVFrameId
p3347
I1264846
sg38
I1
sVIsDeleted
p3348
I00
sVIsBlessed
p3349
I00
sVIsHidden
p3350
I00
sVFrameType
p3351
I10
sa(dp3352
VSentenceId
p3353
V33
p3354
sVFrameData
p3355
(lp3356
(dp3357
VValue
p3358
(dp3359
VPlaceInSentence
p3360
I2
sVEntity
p3361
I75168
ssVKey
p3362
I6
sa(dp3363
VValue
p3364
(dp3365
VPlaceInSentence
p3366
I14
sVEntity
p3367
I42
ssVKey
p3368
I3
sa(dp3369
VValue
p3370
(dp3371
VPlaceInSentence
p3372
I26
sVEntity
p3373
I77981
ssVKey
p3374
I2
sasVSourceId
p3375
VPipeline parse at 2013-10-12T05:41:25.759324
p3376
sVTargetWord
p3377
NsVDocumentId
p3378
V6137E126-6852-4EAA-8524-3AD34DBBE243
p3379
sVFrameId
p3380
I1261526
sg38
I1
sVIsDeleted
p3381
I00
sVIsBlessed
p3382
I00
sVIsHidden
p3383
I00
sVFrameType
p3384
I22
sa(dp3385
VSentenceId
p3386
V
sVFrameData
p3387
(lp3388
(dp3389
VValue
p3390
(dp3391
VPlaceInSentence
p3392
I0
sVEntity
p3393
I42
ssVKey
p3394
I1
sa(dp3395
VValue
p3396
(dp3397
VPlaceInSentence
p3398
I0
sVEntity
p3399
I67
ssVKey
p3400
I2
sasVSourceId
p3401
VManual sample data - kasjauns.lv
p3402
sVTargetWord
p3403
NsVDocumentId
p3404
V5D1D9D88-CDBB-4B32-BDE1-CE0DBBC7A18A
p3405
sVFrameId
p3406
I1000027
sg38
I1
sVIsDeleted
p3407
I00
sVIsBlessed
p3408
I00
sVIsHidden
p3409
I00
sVFrameType
p3410
I7
sa(dp3411
VSentenceId
p3412
V37
p3413
sVFrameData
p3414
(lp3415
(dp3416
VValue
p3417
(dp3418
VPlaceInSentence
p3419
I2
sVEntity
p3420
I42
ssVKey
p3421
I3
sa(dp3422
VValue
p3423
(dp3424
VPlaceInSentence
p3425
I8
sVEntity
p3426
I114503
ssVKey
p3427
I2
sasVSourceId
p3428
VPipeline parse at 2013-10-12T05:52:51.549223
p3429
sVTargetWord
p3430
NsVDocumentId
p3431
VB3A77FAE-B2F1-4896-AD6C-2276A6A52F78
p3432
sVFrameId
p3433
I1264243
sg38
I1
sVIsDeleted
p3434
I00
sVIsBlessed
p3435
I00
sVIsHidden
p3436
I00
sVFrameType
p3437
I22
sa(dp3438
VSentenceId
p3439
V13
p3440
sVFrameData
p3441
(lp3442
(dp3443
VValue
p3444
(dp3445
VPlaceInSentence
p3446
I6
sVEntity
p3447
I76033
ssVKey
p3448
I3
sa(dp3449
VValue
p3450
(dp3451
VPlaceInSentence
p3452
I2
sVEntity
p3453
I76032
ssVKey
p3454
I7
sa(dp3455
VValue
p3456
(dp3457
VPlaceInSentence
p3458
I3
sVEntity
p3459
I42
ssVKey
p3460
I4
sasVSourceId
p3461
VPipeline parse at 2013-10-12T05:36:23.389528
p3462
sVTargetWord
p3463
NsVDocumentId
p3464
V3E638278-62DC-4E79-A405-A8AAADE41A36
p3465
sVFrameId
p3466
I1260220
sg38
I1
sVIsDeleted
p3467
I00
sVIsBlessed
p3468
I00
sVIsHidden
p3469
I00
sVFrameType
p3470
I10
sa(dp3471
VSentenceId
p3472
V29
p3473
sVFrameData
p3474
(lp3475
(dp3476
VValue
p3477
(dp3478
VPlaceInSentence
p3479
I6
sVEntity
p3480
I76033
ssVKey
p3481
I3
sa(dp3482
VValue
p3483
(dp3484
VPlaceInSentence
p3485
I2
sVEntity
p3486
I76032
ssVKey
p3487
I7
sa(dp3488
VValue
p3489
(dp3490
VPlaceInSentence
p3491
I3
sVEntity
p3492
I42
ssVKey
p3493
I4
sasVSourceId
p3494
VPipeline parse at 2013-10-12T05:41:25.759005
p3495
sVTargetWord
p3496
NsVDocumentId
p3497
V6137E126-6852-4EAA-8524-3AD34DBBE243
p3498
sVFrameId
p3499
I1261522
sg38
I1
sVIsDeleted
p3500
I00
sVIsBlessed
p3501
I00
sVIsHidden
p3502
I00
sVFrameType
p3503
I10
sa(dp3504
VSentenceId
p3505
V3
sVFrameData
p3506
(lp3507
(dp3508
VValue
p3509
(dp3510
VPlaceInSentence
p3511
I0
sVEntity
p3512
I42
ssVKey
p3513
I1
sa(dp3514
VValue
p3515
(dp3516
VPlaceInSentence
p3517
I0
sVEntity
p3518
I69
ssVKey
p3519
I2
sasVSourceId
p3520
VManual sample data - LETA
p3521
sVTargetWord
p3522
NsVDocumentId
p3523
V5FE08E7F-66C0-413B-B68B-7E159E2B597B
p3524
sVFrameId
p3525
I1000041
sg38
I1
sVIsDeleted
p3526
I00
sVIsBlessed
p3527
I00
sVIsHidden
p3528
I00
sVFrameType
p3529
I7
sa(dp3530
VSentenceId
p3531
V11
p3532
sVFrameData
p3533
(lp3534
(dp3535
VValue
p3536
(dp3537
VPlaceInSentence
p3538
I2
sVEntity
p3539
I75168
ssVKey
p3540
I6
sa(dp3541
VValue
p3542
(dp3543
VPlaceInSentence
p3544
I3
sVEntity
p3545
I42
ssVKey
p3546
I3
sa(dp3547
VValue
p3548
(dp3549
VPlaceInSentence
p3550
I28
sVEntity
p3551
I75176
ssVKey
p3552
I2
sasVSourceId
p3553
VPipeline parse at 2013-10-12T05:37:27.424513
p3554
sVTargetWord
p3555
NsVDocumentId
p3556
V47879BB1-1963-41F3-AF3A-2AEF88930727
p3557
sVFrameId
p3558
I1260567
sg38
I1
sVIsDeleted
p3559
I00
sVIsBlessed
p3560
I00
sVIsHidden
p3561
I00
sVFrameType
p3562
I22
sa(dp3563
VSentenceId
p3564
V31
p3565
sVFrameData
p3566
(lp3567
(dp3568
VValue
p3569
(dp3570
VPlaceInSentence
p3571
I6
sVEntity
p3572
I76033
ssVKey
p3573
I3
sa(dp3574
VValue
p3575
(dp3576
VPlaceInSentence
p3577
I2
sVEntity
p3578
I76032
ssVKey
p3579
I7
sa(dp3580
VValue
p3581
(dp3582
VPlaceInSentence
p3583
I3
sVEntity
p3584
I42
ssVKey
p3585
I4
sasVSourceId
p3586
VPipeline parse at 2013-10-12T05:42:55.850515
p3587
sVTargetWord
p3588
NsVDocumentId
p3589
V6A8FC9DF-A9FE-400A-8C57-D9C5C75418EB
p3590
sVFrameId
p3591
I1261894
sg38
I1
sVIsDeleted
p3592
I00
sVIsBlessed
p3593
I00
sVIsHidden
p3594
I00
sVFrameType
p3595
I10
sa(dp3596
VSentenceId
p3597
V5
sVFrameData
p3598
(lp3599
(dp3600
VValue
p3601
(dp3602
VPlaceInSentence
p3603
I0
sVEntity
p3604
I60
ssVKey
p3605
I6
sa(dp3606
VValue
p3607
(dp3608
VPlaceInSentence
p3609
I0
sVEntity
p3610
I59
ssVKey
p3611
I2
sa(dp3612
VValue
p3613
(dp3614
VPlaceInSentence
p3615
I0
sVEntity
p3616
I42
ssVKey
p3617
I1
sa(dp3618
VValue
p3619
(dp3620
VPlaceInSentence
p3621
I0
sVEntity
p3622
I52
ssVKey
p3623
I5
sasVSourceId
p3624
VManual sample data - LETA
p3625
sVTargetWord
p3626
NsVDocumentId
p3627
V5FE08E7F-66C0-413B-B68B-7E159E2B597B
p3628
sVFrameId
p3629
I1000034
sg38
I1
sVIsDeleted
p3630
I00
sVIsBlessed
p3631
I00
sVIsHidden
p3632
I00
sVFrameType
p3633
I6
sa(dp3634
VSentenceId
p3635
V10
p3636
sVFrameData
p3637
(lp3638
(dp3639
VValue
p3640
(dp3641
VPlaceInSentence
p3642
I2
sVEntity
p3643
I75168
ssVKey
p3644
I6
sa(dp3645
VValue
p3646
(dp3647
VPlaceInSentence
p3648
I3
sVEntity
p3649
I42
ssVKey
p3650
I3
sa(dp3651
VValue
p3652
(dp3653
VPlaceInSentence
p3654
I28
sVEntity
p3655
I77981
ssVKey
p3656
I2
sasVSourceId
p3657
VPipeline parse at 2013-10-12T05:57:31.967723
p3658
sVTargetWord
p3659
NsVDocumentId
p3660
VDA670CBD-CB23-4180-96E0-7D72435EC76F
p3661
sVFrameId
p3662
I1265357
sg38
I1
sVIsDeleted
p3663
I00
sVIsBlessed
p3664
I00
sVIsHidden
p3665
I00
sVFrameType
p3666
I22
sa(dp3667
VSentenceId
p3668
V11
p3669
sVFrameData
p3670
(lp3671
(dp3672
VValue
p3673
(dp3674
VPlaceInSentence
p3675
I2
sVEntity
p3676
I75168
ssVKey
p3677
I6
sa(dp3678
VValue
p3679
(dp3680
VPlaceInSentence
p3681
I3
sVEntity
p3682
I42
ssVKey
p3683
I3
sa(dp3684
VValue
p3685
(dp3686
VPlaceInSentence
p3687
I24
sVEntity
p3688
I103510
ssVKey
p3689
I2
sasVSourceId
p3690
VPipeline parse at 2013-10-12T05:53:47.646221
p3691
sVTargetWord
p3692
NsVDocumentId
p3693
VB8D23453-E290-4AFA-BEF3-CD0C0CA9FD80
p3694
sVFrameId
p3695
I1264483
sg38
I1
sVIsDeleted
p3696
I00
sVIsBlessed
p3697
I00
sVIsHidden
p3698
I00
sVFrameType
p3699
I22
sa(dp3700
VSentenceId
p3701
V17
p3702
sVFrameData
p3703
(lp3704
(dp3705
VValue
p3706
(dp3707
VPlaceInSentence
p3708
I2
sVEntity
p3709
I75168
ssVKey
p3710
I6
sa(dp3711
VValue
p3712
(dp3713
VPlaceInSentence
p3714
I14
sVEntity
p3715
I42
ssVKey
p3716
I3
sa(dp3717
VValue
p3718
(dp3719
VPlaceInSentence
p3720
I26
sVEntity
p3721
I77981
ssVKey
p3722
I2
sasVSourceId
p3723
VPipeline parse at 2013-10-12T05:59:09.406140
p3724
sVTargetWord
p3725
NsVDocumentId
p3726
VECDEE338-F39E-4DE6-964A-5E86262FDF91
p3727
sVFrameId
p3728
I1265747
sg38
I1
sVIsDeleted
p3729
I00
sVIsBlessed
p3730
I00
sVIsHidden
p3731
I00
sVFrameType
p3732
I22
sa(dp3733
VSentenceId
p3734
V
sVFrameData
p3735
(lp3736
(dp3737
VValue
p3738
(dp3739
VPlaceInSentence
p3740
I0
sVEntity
p3741
I42
ssVKey
p3742
I1
sa(dp3743
VValue
p3744
(dp3745
VPlaceInSentence
p3746
I0
sVEntity
p3747
I69
ssVKey
p3748
I2
sasVSourceId
p3749
VManual sample data - kasjauns.lv
p3750
sVTargetWord
p3751
NsVDocumentId
p3752
V5D1D9D88-CDBB-4B32-BDE1-CE0DBBC7A18A
p3753
sVFrameId
p3754
I1000029
sg38
I1
sVIsDeleted
p3755
I00
sVIsBlessed
p3756
I00
sVIsHidden
p3757
I00
sVFrameType
p3758
I7
sa(dp3759
VSentenceId
p3760
V30
p3761
sVFrameData
p3762
(lp3763
(dp3764
VValue
p3765
(dp3766
VPlaceInSentence
p3767
I2
sVEntity
p3768
I75168
ssVKey
p3769
I6
sa(dp3770
VValue
p3771
(dp3772
VPlaceInSentence
p3773
I3
sVEntity
p3774
I42
ssVKey
p3775
I3
sa(dp3776
VValue
p3777
(dp3778
VPlaceInSentence
p3779
I28
sVEntity
p3780
I75173
ssVKey
p3781
I2
sasVSourceId
p3782
VPipeline parse at 2013-10-12T05:42:55.850314
p3783
sVTargetWord
p3784
NsVDocumentId
p3785
V6A8FC9DF-A9FE-400A-8C57-D9C5C75418EB
p3786
sVFrameId
p3787
I1261892
sg38
I1
sVIsDeleted
p3788
I00
sVIsBlessed
p3789
I00
sVIsHidden
p3790
I00
sVFrameType
p3791
I22
sa(dp3792
VSentenceId
p3793
V18
p3794
sVFrameData
p3795
(lp3796
(dp3797
VValue
p3798
(dp3799
VPlaceInSentence
p3800
I2
sVEntity
p3801
I77269
ssVKey
p3802
I6
sa(dp3803
VValue
p3804
(dp3805
VPlaceInSentence
p3806
I3
sVEntity
p3807
I42
ssVKey
p3808
I3
sa(dp3809
VValue
p3810
(dp3811
VPlaceInSentence
p3812
I15
sVEntity
p3813
I75173
ssVKey
p3814
I2
sasVSourceId
p3815
VPipeline parse at 2013-10-12T05:49:13.643839
p3816
sVTargetWord
p3817
NsVDocumentId
p3818
V9673721B-3D8F-4C43-AD0D-38355479F7AA
p3819
sVFrameId
p3820
I1263364
sg38
I1
sVIsDeleted
p3821
I00
sVIsBlessed
p3822
I00
sVIsHidden
p3823
I00
sVFrameType
p3824
I22
sa(dp3825
VSentenceId
p3826
V36
p3827
sVFrameData
p3828
(lp3829
(dp3830
VValue
p3831
(dp3832
VPlaceInSentence
p3833
I2
sVEntity
p3834
I77269
ssVKey
p3835
I6
sa(dp3836
VValue
p3837
(dp3838
VPlaceInSentence
p3839
I3
sVEntity
p3840
I42
ssVKey
p3841
I3
sa(dp3842
VValue
p3843
(dp3844
VPlaceInSentence
p3845
I15
sVEntity
p3846
I75173
ssVKey
p3847
I2
sasVSourceId
p3848
VPipeline parse at 2013-10-12T05:42:55.850886
p3849
sVTargetWord
p3850
NsVDocumentId
p3851
V6A8FC9DF-A9FE-400A-8C57-D9C5C75418EB
p3852
sVFrameId
p3853
I1261899
sg38
I1
sVIsDeleted
p3854
I00
sVIsBlessed
p3855
I00
sVIsHidden
p3856
I00
sVFrameType
p3857
I22
sa(dp3858
VSentenceId
p3859
V8
sVFrameData
p3860
(lp3861
(dp3862
VValue
p3863
(dp3864
VPlaceInSentence
p3865
I11
sVEntity
p3866
I79062
ssVKey
p3867
I7
sa(dp3868
VValue
p3869
(dp3870
VPlaceInSentence
p3871
I2
sVEntity
p3872
I42
ssVKey
p3873
I4
sasVSourceId
p3874
VPipeline parse at 2013-10-12T05:48:49.167856
p3875
sVTargetWord
p3876
NsVDocumentId
p3877
V913F7D4A-E087-4510-9AD8-55825A16F1C1
p3878
sVFrameId
p3879
I1263235
sg38
I1
sVIsDeleted
p3880
I00
sVIsBlessed
p3881
I00
sVIsHidden
p3882
I00
sVFrameType
p3883
I10
sa(dp3884
VSentenceId
p3885
V12
p3886
sVFrameData
p3887
(lp3888
(dp3889
VValue
p3890
(dp3891
VPlaceInSentence
p3892
I2
sVEntity
p3893
I75168
ssVKey
p3894
I6
sa(dp3895
VValue
p3896
(dp3897
VPlaceInSentence
p3898
I3
sVEntity
p3899
I42
ssVKey
p3900
I3
sa(dp3901
VValue
p3902
(dp3903
VPlaceInSentence
p3904
I28
sVEntity
p3905
I75173
ssVKey
p3906
I2
sasVSourceId
p3907
VPipeline parse at 2013-10-12T05:49:13.643175
p3908
sVTargetWord
p3909
NsVDocumentId
p3910
V9673721B-3D8F-4C43-AD0D-38355479F7AA
p3911
sVFrameId
p3912
I1263356
sg38
I1
sVIsDeleted
p3913
I00
sVIsBlessed
p3914
I00
sVIsHidden
p3915
I00
sVFrameType
p3916
I22
sa(dp3917
VSentenceId
p3918
V16
p3919
sVFrameData
p3920
(lp3921
(dp3922
VValue
p3923
(dp3924
VPlaceInSentence
p3925
I2
sVEntity
p3926
I75168
ssVKey
p3927
I6
sa(dp3928
VValue
p3929
(dp3930
VPlaceInSentence
p3931
I14
sVEntity
p3932
I42
ssVKey
p3933
I3
sa(dp3934
VValue
p3935
(dp3936
VPlaceInSentence
p3937
I26
sVEntity
p3938
I77981
ssVKey
p3939
I2
sasVSourceId
p3940
VPipeline parse at 2013-10-12T05:53:47.646714
p3941
sVTargetWord
p3942
NsVDocumentId
p3943
VB8D23453-E290-4AFA-BEF3-CD0C0CA9FD80
p3944
sVFrameId
p3945
I1264489
sg38
I1
sVIsDeleted
p3946
I00
sVIsBlessed
p3947
I00
sVIsHidden
p3948
I00
sVFrameType
p3949
I22
sa(dp3950
VSentenceId
p3951
V28
p3952
sVFrameData
p3953
(lp3954
(dp3955
VValue
p3956
(dp3957
VPlaceInSentence
p3958
I2
sVEntity
p3959
I75168
ssVKey
p3960
I6
sa(dp3961
VValue
p3962
(dp3963
VPlaceInSentence
p3964
I3
sVEntity
p3965
I42
ssVKey
p3966
I3
sa(dp3967
VValue
p3968
(dp3969
VPlaceInSentence
p3970
I28
sVEntity
p3971
I77981
ssVKey
p3972
I2
sasVSourceId
p3973
VPipeline parse at 2013-10-12T05:37:41.446478
p3974
sVTargetWord
p3975
NsVDocumentId
p3976
V4B3E74FD-7EDD-4960-9C03-5A1D28D7FD61
p3977
sVFrameId
p3978
I1260642
sg38
I1
sVIsDeleted
p3979
I00
sVIsBlessed
p3980
I00
sVIsHidden
p3981
I00
sVFrameType
p3982
I22
sa(dp3983
VSentenceId
p3984
V11
p3985
sVFrameData
p3986
(lp3987
(dp3988
VValue
p3989
(dp3990
VPlaceInSentence
p3991
I2
sVEntity
p3992
I77269
ssVKey
p3993
I6
sa(dp3994
VValue
p3995
(dp3996
VPlaceInSentence
p3997
I3
sVEntity
p3998
I42
ssVKey
p3999
I3
sa(dp4000
VValue
p4001
(dp4002
VPlaceInSentence
p4003
I15
sVEntity
p4004
I75173
ssVKey
p4005
I2
sasVSourceId
p4006
VPipeline parse at 2013-10-12T05:34:20.436476
p4007
sVTargetWord
p4008
NsVDocumentId
p4009
V24F77CD9-871E-4276-B016-F0560984315D
p4010
sVFrameId
p4011
I1259734
sg38
I1
sVIsDeleted
p4012
I00
sVIsBlessed
p4013
I00
sVIsHidden
p4014
I00
sVFrameType
p4015
I22
sa(dp4016
VSentenceId
p4017
V28
p4018
sVFrameData
p4019
(lp4020
(dp4021
VValue
p4022
(dp4023
VPlaceInSentence
p4024
I2
sVEntity
p4025
I75168
ssVKey
p4026
I6
sa(dp4027
VValue
p4028
(dp4029
VPlaceInSentence
p4030
I3
sVEntity
p4031
I42
ssVKey
p4032
I3
sa(dp4033
VValue
p4034
(dp4035
VPlaceInSentence
p4036
I28
sVEntity
p4037
I77981
ssVKey
p4038
I2
sasVSourceId
p4039
VPipeline parse at 2013-10-12T05:41:25.758815
p4040
sVTargetWord
p4041
NsVDocumentId
p4042
V6137E126-6852-4EAA-8524-3AD34DBBE243
p4043
sVFrameId
p4044
I1261520
sg38
I1
sVIsDeleted
p4045
I00
sVIsBlessed
p4046
I00
sVIsHidden
p4047
I00
sVFrameType
p4048
I22
sa(dp4049
VSentenceId
p4050
V41
p4051
sVFrameData
p4052
(lp4053
(dp4054
VValue
p4055
(dp4056
VPlaceInSentence
p4057
I6
sVEntity
p4058
I76033
ssVKey
p4059
I3
sa(dp4060
VValue
p4061
(dp4062
VPlaceInSentence
p4063
I2
sVEntity
p4064
I76032
ssVKey
p4065
I7
sa(dp4066
VValue
p4067
(dp4068
VPlaceInSentence
p4069
I3
sVEntity
p4070
I42
ssVKey
p4071
I4
sasVSourceId
p4072
VPipeline parse at 2013-10-12T05:43:25.735350
p4073
sVTargetWord
p4074
NsVDocumentId
p4075
V7320BA22-4B40-4A6E-8516-99A1365FC9EC
p4076
sVFrameId
p4077
I1262017
sg38
I1
sVIsDeleted
p4078
I00
sVIsBlessed
p4079
I00
sVIsHidden
p4080
I00
sVFrameType
p4081
I10
sa(dp4082
VSentenceId
p4083
V17
p4084
sVFrameData
p4085
(lp4086
(dp4087
VValue
p4088
(dp4089
VPlaceInSentence
p4090
I14
sVEntity
p4091
I75392
ssVKey
p4092
I6
sa(dp4093
VValue
p4094
(dp4095
VPlaceInSentence
p4096
I18
sVEntity
p4097
I75392
ssVKey
p4098
I5
sa(dp4099
VValue
p4100
(dp4101
VPlaceInSentence
p4102
I8
sVEntity
p4103
I42
ssVKey
p4104
I3
sasVSourceId
p4105
VPipeline parse at 2013-10-12T05:35:08.016930
p4106
sVTargetWord
p4107
NsVDocumentId
p4108
V2D8E0710-1F0C-4C66-825D-958D0C48E2BF
p4109
sVFrameId
p4110
I1259913
sg38
I1
sVIsDeleted
p4111
I00
sVIsBlessed
p4112
I00
sVIsHidden
p4113
I00
sVFrameType
p4114
I22
sa(dp4115
VSentenceId
p4116
V30
p4117
sVFrameData
p4118
(lp4119
(dp4120
VValue
p4121
(dp4122
VPlaceInSentence
p4123
I2
sVEntity
p4124
I75168
ssVKey
p4125
I6
sa(dp4126
VValue
p4127
(dp4128
VPlaceInSentence
p4129
I3
sVEntity
p4130
I42
ssVKey
p4131
I3
sa(dp4132
VValue
p4133
(dp4134
VPlaceInSentence
p4135
I28
sVEntity
p4136
I75173
ssVKey
p4137
I2
sasVSourceId
p4138
VPipeline parse at 2013-10-12T05:42:55.850212
p4139
sVTargetWord
p4140
NsVDocumentId
p4141
V6A8FC9DF-A9FE-400A-8C57-D9C5C75418EB
p4142
sVFrameId
p4143
I1261891
sg38
I1
sVIsDeleted
p4144
I00
sVIsBlessed
p4145
I00
sVIsHidden
p4146
I00
sVFrameType
p4147
I22
sa(dp4148
VSentenceId
p4149
V0
sVFrameData
p4150
(lp4151
(dp4152
VValue
p4153
(dp4154
VPlaceInSentence
p4155
I2
sVEntity
p4156
I42
ssVKey
p4157
I3
sasVSourceId
p4158
VPipeline parse at 2013-10-12T05:51:45.814450
p4159
sVTargetWord
p4160
NsVDocumentId
p4161
VABE86F87-D0DB-4728-9688-778B35D52FB8
p4162
sVFrameId
p4163
I1263989
sg38
I1
sVIsDeleted
p4164
I00
sVIsBlessed
p4165
I00
sVIsHidden
p4166
I00
sVFrameType
p4167
I22
sa(dp4168
VSentenceId
p4169
V14
p4170
sVFrameData
p4171
(lp4172
(dp4173
VValue
p4174
(dp4175
VPlaceInSentence
p4176
I2
sVEntity
p4177
I75168
ssVKey
p4178
I6
sa(dp4179
VValue
p4180
(dp4181
VPlaceInSentence
p4182
I3
sVEntity
p4183
I42
ssVKey
p4184
I3
sa(dp4185
VValue
p4186
(dp4187
VPlaceInSentence
p4188
I24
sVEntity
p4189
I103510
ssVKey
p4190
I2
sasVSourceId
p4191
VPipeline parse at 2013-10-12T05:49:01.704469
p4192
sVTargetWord
p4193
NsVDocumentId
p4194
V94527745-D752-49A4-845D-0AFC090679B7
p4195
sVFrameId
p4196
I1263294
sg38
I1
sVIsDeleted
p4197
I00
sVIsBlessed
p4198
I00
sVIsHidden
p4199
I00
sVFrameType
p4200
I22
sa(dp4201
VSentenceId
p4202
V24
p4203
sVFrameData
p4204
(lp4205
(dp4206
VValue
p4207
(dp4208
VPlaceInSentence
p4209
I0
sVEntity
p4210
I60
ssVKey
p4211
I6
sa(dp4212
VValue
p4213
(dp4214
VPlaceInSentence
p4215
I0
sVEntity
p4216
I59
ssVKey
p4217
I2
sa(dp4218
VValue
p4219
(dp4220
VPlaceInSentence
p4221
I0
sVEntity
p4222
I42
ssVKey
p4223
I1
sa(dp4224
VValue
p4225
(dp4226
VPlaceInSentence
p4227
I0
sVEntity
p4228
I52
ssVKey
p4229
I5
sasVSourceId
p4230
VManual sample data - kasjauns.lv
p4231
sVTargetWord
p4232
NsVDocumentId
p4233
V5D1D9D88-CDBB-4B32-BDE1-CE0DBBC7A18A
p4234
sVFrameId
p4235
I1000021
sg38
I1
sVIsDeleted
p4236
I00
sVIsBlessed
p4237
I00
sVIsHidden
p4238
I00
sVFrameType
p4239
I6
sa(dp4240
VSentenceId
p4241
V35
p4242
sVFrameData
p4243
(lp4244
(dp4245
VValue
p4246
(dp4247
VPlaceInSentence
p4248
I2
sVEntity
p4249
I76025
ssVKey
p4250
I6
sa(dp4251
VValue
p4252
(dp4253
VPlaceInSentence
p4254
I4
sVEntity
p4255
I42
ssVKey
p4256
I3
sa(dp4257
VValue
p4258
(dp4259
VPlaceInSentence
p4260
I10
sVEntity
p4261
I76026
ssVKey
p4262
I2
sasVSourceId
p4263
VPipeline parse at 2013-10-12T05:56:31.272229
p4264
sVTargetWord
p4265
NsVDocumentId
p4266
VD0F57BAA-7D6B-4557-AB0E-93835A38C919
p4267
sVFrameId
p4268
I1265102
sg38
I1
sVIsDeleted
p4269
I00
sVIsBlessed
p4270
I00
sVIsHidden
p4271
I00
sVFrameType
p4272
I22
sa(dp4273
VSentenceId
p4274
V8
sVFrameData
p4275
(lp4276
(dp4277
VValue
p4278
(dp4279
VPlaceInSentence
p4280
I0
sVEntity
p4281
I42
ssVKey
p4282
I1
sa(dp4283
VValue
p4284
(dp4285
VPlaceInSentence
p4286
I0
sVEntity
p4287
I61
ssVKey
p4288
I3
sa(dp4289
VValue
p4290
(dp4291
VPlaceInSentence
p4292
I0
sVEntity
p4293
I53
ssVKey
p4294
I9
sa(dp4295
VValue
p4296
(dp4297
VPlaceInSentence
p4298
I0
sVEntity
p4299
I62
ssVKey
p4300
I5
sa(dp4301
VValue
p4302
(dp4303
VPlaceInSentence
p4304
I0
sVEntity
p4305
I52
ssVKey
p4306
I8
sasVSourceId
p4307
VManual sample data - LETA
p4308
sVTargetWord
p4309
NsVDocumentId
p4310
V5FE08E7F-66C0-413B-B68B-7E159E2B597B
p4311
sVFrameId
p4312
I1000038
sg38
I1
sVIsDeleted
p4313
I00
sVIsBlessed
p4314
I00
sVIsHidden
p4315
I00
sVFrameType
p4316
I9
sasS'_api'
p4317
g2
(cSemanticApi
SemanticApi
p4318
g4
NtRp4319
sS'entity_id'
p4320
I42
sS'cons_frames'
p4321
(lp4322
(dp4323
S'SummarizedFrames'
p4324
(lp4325
I1000031
aI1000018
asg1242
S''
sg1243
(lp4326
(dp4327
g1250
I2
sg1246
(dp4328
g1248
I0
sg1249
I49
ssa(dp4329
g1256
I1
sg1252
(dp4330
g1254
I0
sg1255
I42
ssa(dp4331
g1262
I5
sg1258
(dp4332
g1260
I0
sg1261
I50
ssasg1263
S''
sg1265
Nsg1272
I6
sg1268
I1000031
sg38
I2
sg1269
I00
sS'SummaryInfo'
p4333
S'captsolo | ConsolidateFrames:  BaseConsolidator | 2013_10_13 00:28:46'
p4334
sg1270
I00
sg1271
I00
sg1266
S''
sS'MergeType'
p4335
S'M'
sa(dp4336
g4324
(lp4337
I1265102
asg4241
g4242
sg4243
(lp4338
(dp4339
g4250
I6
sg4246
(dp4340
g4248
I2
sg4249
I76025
ssa(dp4341
g4256
I3
sg4252
(dp4342
g4254
I4
sg4255
I42
ssa(dp4343
g4262
I2
sg4258
(dp4344
g4260
I10
sg4261
I76026
ssasg4263
g4264
sg4265
Nsg4272
I22
sg4268
I1265102
sg38
I1
sg4269
I00
sg4333
S'captsolo | ConsolidateFrames:  BaseConsolidator | 2013_10_13 00:28:46'
p4345
sg4270
I00
sg4271
I00
sg4266
g4267
sg4335
S'O'
sa(dp4346
g4324
(lp4347
I1263373
asg2565
g2566
sg2567
(lp4348
(dp4349
g2574
I5
sg2570
(dp4350
g2572
I7
sg2573
I118256
ssa(dp4351
g2580
I4
sg2576
(dp4352
g2578
I19
sg2579
I42
ssasg2581
g2582
sg2583
Nsg2590
I10
sg2586
I1263373
sg38
I1
sg2587
I00
sg4333
S'captsolo | ConsolidateFrames:  BaseConsolidator | 2013_10_13 00:28:46'
p4353
sg2588
I00
sg2589
I00
sg2584
g2585
sg4335
S'O'
sa(dp4354
g4324
(lp4355
I1000026
aI1000038
asg1733
S''
sg1734
(lp4356
(dp4357
g1741
I1
sg1737
(dp4358
g1739
I0
sg1740
I42
ssa(dp4359
g1747
I3
sg1743
(dp4360
g1745
I0
sg1746
I61
ssa(dp4361
g1753
I9
sg1749
(dp4362
g1751
I0
sg1752
I53
ssa(dp4363
g1759
I5
sg1755
(dp4364
g1757
I0
sg1758
I62
ssa(dp4365
g1765
I8
sg1761
(dp4366
g1763
I0
sg1764
I52
ssasg1766
S''
sg1768
Nsg1775
I9
sg1771
I1000026
sg38
I2
sg1772
I00
sg4333
S'captsolo | ConsolidateFrames:  BaseConsolidator | 2013_10_13 00:28:46'
p4367
sg1773
I00
sg1774
I00
sg1769
S''
sg4335
S'M'
sa(dp4368
g4324
(lp4369
I1264893
asg979
V5
sg980
(lp4370
(dp4371
g987
I6
sg983
(dp4372
g985
I2
sg986
I56
ssa(dp4373
g993
I3
sg989
(dp4374
g991
I15
sg992
I42
ssa(dp4375
g999
I2
sg995
(dp4376
g997
I9
sg998
I118699
ssasg1000
g1001
sg1002
Nsg1009
I22
sg1005
I1264893
sg38
I1
sg1006
I00
sg4333
S'captsolo | ConsolidateFrames:  BaseConsolidator | 2013_10_13 00:28:46'
p4377
sg1007
I00
sg1008
I00
sg1003
g1004
sg4335
S'O'
sa(dp4378
g4324
(lp4379
I1000032
aI1000019
asg2762
S''
sg2763
(lp4380
(dp4381
g2770
I1
sg2766
(dp4382
g2768
I0
sg2769
I42
ssa(dp4383
g2776
I3
sg2772
(dp4384
g2774
I0
sg2775
I47
ssa(dp4385
g2782
I2
sg2778
(dp4386
g2780
I0
sg2781
I48
ssasg2783
S''
sg2785
Nsg2792
I9
sg2788
I1000032
sg38
I2
sg2789
I00
sg4333
S'captsolo | ConsolidateFrames:  BaseConsolidator | 2013_10_13 00:28:46'
p4387
sg2790
I00
sg2791
I00
sg2786
S''
sg4335
S'M'
sa(dp4388
g4324
(lp4389
I1000036
aI1000024
asg1602
S''
sg1604
(lp4390
(dp4391
g1611
I2
sg1607
(dp4392
g1609
I0
sg1610
I64
ssa(dp4393
g1617
I3
sg1613
(dp4394
g1615
I0
sg1616
I65
ssa(dp4395
g1623
I1
sg1619
(dp4396
g1621
I0
sg1622
I42
ssa(dp4397
g1629
I6
sg1625
(dp4398
g1627
I0
sg1628
I55
ssasg1630
S''
sg1632
Nsg1639
I13
sg1635
I1000036
sg38
I2
sg1636
I00
sg4333
S'captsolo | ConsolidateFrames:  BaseConsolidator | 2013_10_13 00:28:46'
p4399
sg1637
I00
sg1638
I00
sg1633
S''
sg4335
S'M'
sa(dp4400
g4324
(lp4401
I1259731
aI1259730
asg610
S''
sg611
(lp4402
(dp4403
g618
I3
sg614
(dp4404
g616
I2
sg617
I42
ssa(dp4405
g624
I2
sg620
(dp4406
g622
I19
sg623
I103510
ssasg625
S''
sg627
Nsg634
I22
sg630
I1259731
sg38
I2
sg631
I00
sg4333
S'captsolo | ConsolidateFrames:  BaseConsolidator | 2013_10_13 00:28:46'
p4407
sg632
I00
sg633
I00
sg628
g629
sg4335
S'M'
sa(dp4408
g4324
(lp4409
I1000040
aI1000028
asg110
S''
sg111
(lp4410
(dp4411
g118
I1
sg114
(dp4412
g116
I0
sg117
I42
ssa(dp4413
g124
I2
sg120
(dp4414
g122
I0
sg123
I68
ssasg125
S''
sg127
Nsg134
I7
sg130
I1000040
sg38
I2
sg131
I00
sg4333
S'captsolo | ConsolidateFrames:  BaseConsolidator | 2013_10_13 00:28:46'
p4415
sg132
I00
sg133
I00
sg128
S''
sg4335
S'M'
sa(dp4416
g4324
(lp4417
I1266299
aI1263292
aI1266300
aI1264482
aI1263293
aI1264484
aI1264483
aI1263294
asg340
S''
sg342
(lp4418
(dp4419
g349
I6
sg345
(dp4420
g347
I2
sg348
I75168
ssa(dp4421
g355
I3
sg351
(dp4422
g353
I4
sg354
I42
ssa(dp4423
g361
I2
sg357
(dp4424
g359
I24
sg360
I103510
ssasg362
S''
sg364
Nsg371
I22
sg367
I1266299
sg38
I8
sg368
I00
sg4333
S'captsolo | ConsolidateFrames:  BaseConsolidator | 2013_10_13 00:28:46'
p4425
sg369
I00
sg370
I00
sg365
S''
sg4335
S'M'
sa(dp4426
g4324
(lp4427
I1266071
aI1266072
aI1260568
aI1260566
aI1266073
aI1260567
asg1077
S''
sg1079
(lp4428
(dp4429
g1086
I6
sg1082
(dp4430
g1084
I2
sg1085
I75168
ssa(dp4431
g1092
I3
sg1088
(dp4432
g1090
I3
sg1091
I42
ssa(dp4433
g1098
I2
sg1094
(dp4434
g1096
I28
sg1097
I75176
ssasg1099
S''
sg1101
Nsg1108
I22
sg1104
I1266071
sg38
I6
sg1105
I00
sg4333
S'captsolo | ConsolidateFrames:  BaseConsolidator | 2013_10_13 00:28:46'
p4435
sg1106
I00
sg1107
I00
sg1102
S''
sg4335
S'M'
sa(dp4436
g4324
(lp4437
I1260574
aI1266079
asg913
S''
sg915
(lp4438
(dp4439
g922
I6
sg918
(dp4440
g920
I1
sg921
I75176
ssa(dp4441
g928
I3
sg924
(dp4442
g926
I2
sg927
I42
ssa(dp4443
g934
I2
sg930
(dp4444
g932
I14
sg933
I75176
ssasg935
S''
sg937
Nsg944
I22
sg940
I1260574
sg38
I2
sg941
I00
sg4333
S'captsolo | ConsolidateFrames:  BaseConsolidator | 2013_10_13 00:28:46'
p4445
sg942
I00
sg943
I00
sg938
S''
sg4335
S'M'
sa(dp4446
g4324
(lp4447
I1000041
aI1000029
asg3505
S''
sg3506
(lp4448
(dp4449
g3513
I1
sg3509
(dp4450
g3511
I0
sg3512
I42
ssa(dp4451
g3519
I2
sg3515
(dp4452
g3517
I0
sg3518
I69
ssasg3520
S''
sg3522
Nsg3529
I7
sg3525
I1000041
sg38
I2
sg3526
I00
sg4333
S'captsolo | ConsolidateFrames:  BaseConsolidator | 2013_10_13 00:28:46'
p4453
sg3527
I00
sg3528
I00
sg3523
S''
sg4335
S'M'
sa(dp4454
g4324
(lp4455
I1265505
aI1260515
asg762
S''
sg763
(lp4456
(dp4457
g770
I7
sg766
(dp4458
g768
I2
sg769
I75168
ssa(dp4459
g776
I4
sg772
(dp4460
g774
I3
sg775
I42
ssasg777
S''
sg779
Nsg786
I10
sg782
I1265505
sg38
I2
sg783
I00
sg4333
S'captsolo | ConsolidateFrames:  BaseConsolidator | 2013_10_13 00:28:46'
p4461
sg784
I00
sg785
I00
sg780
S''
sg4335
S'M'
sa(dp4462
g4324
(lp4463
I1261437
aI1263972
aI1264457
aI1260225
aI1263364
aI1261899
aI1259734
asg44
S''
sg46
(lp4464
(dp4465
g53
I6
sg49
(dp4466
g51
I2
sg52
I77269
ssa(dp4467
g59
I3
sg55
(dp4468
g57
I3
sg58
I42
ssa(dp4469
g65
I2
sg61
(dp4470
g63
I15
sg64
I75173
ssasg66
S''
sg68
Nsg75
I22
sg71
I1261437
sg38
I7
sg72
I00
sg4333
S'captsolo | ConsolidateFrames:  BaseConsolidator | 2013_10_13 00:28:46'
p4471
sg73
I00
sg74
I00
sg69
S''
sg4335
S'M'
sa(dp4472
g4324
(lp4473
I1000023
aI1000035
asg1274
S''
sg1275
(lp4474
(dp4475
g1282
I1
sg1278
(dp4476
g1280
I0
sg1281
I42
ssa(dp4477
g1288
I2
sg1284
(dp4478
g1286
I0
sg1287
I63
ssa(dp4479
g1294
I6
sg1290
(dp4480
g1292
I0
sg1293
I54
ssasg1295
S''
sg1297
Nsg1304
I22
sg1300
I1000023
sg38
I2
sg1301
I00
sg4333
S'captsolo | ConsolidateFrames:  BaseConsolidator | 2013_10_13 00:28:46'
p4481
sg1302
I00
sg1303
I00
sg1298
S''
sg4335
S'M'
sa(dp4482
g4324
(lp4483
I1260891
aI1264255
aI1259195
aI1259913
asg472
S''
sg474
(lp4484
(dp4485
g481
I6
sg477
(dp4486
g479
I9
sg480
I75392
ssa(dp4487
g487
I5
sg483
(dp4488
g485
I13
sg486
I75392
ssa(dp4489
g493
I3
sg489
(dp4490
g491
I3
sg492
I42
ssasg494
S''
sg496
Nsg503
I22
sg499
I1260891
sg38
I4
sg500
I00
sg4333
S'captsolo | ConsolidateFrames:  BaseConsolidator | 2013_10_13 00:28:46'
p4491
sg501
I00
sg502
I00
sg497
S''
sg4335
S'M'
sa(dp4492
g4324
(lp4493
I1000017
aI1000030
asg571
S''
sg573
(lp4494
(dp4495
g580
I4
sg576
(dp4496
g578
I0
sg579
I46
ssa(dp4497
g586
I2
sg582
(dp4498
g584
I0
sg585
I44
ssa(dp4499
g592
I3
sg588
(dp4500
g590
I0
sg591
I45
ssa(dp4501
g598
I1
sg594
(dp4502
g596
I0
sg597
I42
ssasg599
S''
sg601
Nsg608
I0
sg604
I1000017
sg38
I2
sg605
I00
sg4333
S'captsolo | ConsolidateFrames:  BaseConsolidator | 2013_10_13 00:28:46'
p4503
sg606
I00
sg607
I00
sg602
S''
sg4335
S'M'
sa(dp4504
g4324
(lp4505
I1000020
aI1000033
asg202
S''
sg204
(lp4506
(dp4507
g211
I5
sg207
(dp4508
g209
I0
sg210
I51
ssa(dp4509
g217
I2
sg213
(dp4510
g215
I0
sg216
I57
ssa(dp4511
g223
I1
sg219
(dp4512
g221
I0
sg222
I42
ssa(dp4513
g229
I3
sg225
(dp4514
g227
I0
sg228
I58
ssasg230
S''
sg232
Nsg239
I6
sg235
I1000020
sg38
I2
sg236
I00
sg4333
S'captsolo | ConsolidateFrames:  BaseConsolidator | 2013_10_13 00:28:46'
p4515
sg237
I00
sg238
I00
sg233
S''
sg4335
S'M'
sa(dp4516
g4324
(lp4517
I1260380
aI1263235
asg702
S''
sg704
(lp4518
(dp4519
g711
I7
sg707
(dp4520
g709
I11
sg710
I79062
ssa(dp4521
g717
I4
sg713
(dp4522
g715
I2
sg716
I42
ssasg718
S''
sg720
Nsg727
I10
sg723
I1260380
sg38
I2
sg724
I00
sg4333
S'captsolo | ConsolidateFrames:  BaseConsolidator | 2013_10_13 00:28:46'
p4523
sg725
I00
sg726
I00
sg721
S''
sg4335
S'M'
sa(dp4524
g4324
(lp4525
I1261432
aI1266074
aI1264452
aI1263295
aI1265471
aI1264485
aI1265743
aI1265359
aI1263967
aI1260645
aI1263359
aI1260569
aI1264846
aI1260220
aI1261522
aI1261894
aI1262017
asg77
S''
sg79
(lp4526
(dp4527
g86
I3
sg82
(dp4528
g84
I6
sg85
I76033
ssa(dp4529
g92
I7
sg88
(dp4530
g90
I2
sg91
I76032
ssa(dp4531
g98
I4
sg94
(dp4532
g96
I3
sg97
I42
ssasg99
S''
sg101
Nsg108
I10
sg104
I1261432
sg38
I17
sg105
I00
sg4333
S'captsolo | ConsolidateFrames:  BaseConsolidator | 2013_10_13 00:28:46'
p4533
sg106
I00
sg107
I00
sg102
S''
sg4335
S'M'
sa(dp4534
g4324
(lp4535
I1000037
aI1000025
asg1881
S''
sg1883
(lp4536
(dp4537
g1890
I1
sg1886
(dp4538
g1888
I0
sg1889
I42
ssa(dp4539
g1896
I2
sg1892
(dp4540
g1894
I0
sg1895
I66
ssa(dp4541
g1902
I6
sg1898
(dp4542
g1900
I0
sg1901
I56
ssasg1903
S''
sg1905
Nsg1912
I22
sg1908
I1000037
sg38
I2
sg1909
I00
sg4333
S'captsolo | ConsolidateFrames:  BaseConsolidator | 2013_10_13 00:28:46'
p4543
sg1910
I00
sg1911
I00
sg1906
S''
sg4335
S'M'
sa(dp4544
g4324
(lp4545
I1259732
asg1980
V9
sg1981
(lp4546
(dp4547
g1988
I7
sg1984
(dp4548
g1986
I2
sg1987
I76032
ssa(dp4549
g1994
I5
sg1990
(dp4550
g1992
I22
sg1993
I75173
ssa(dp4551
g2000
I4
sg1996
(dp4552
g1998
I3
sg1999
I42
ssasg2001
g2002
sg2003
Nsg2010
I10
sg2006
I1259732
sg38
I1
sg2007
I00
sg4333
S'captsolo | ConsolidateFrames:  BaseConsolidator | 2013_10_13 00:28:46'
p4553
sg2008
I00
sg2009
I00
sg2004
g2005
sg4335
S'O'
sa(dp4554
g4324
(lp4555
I1264850
aI1260643
aI1265356
aI1261519
aI1265740
aI1265741
aI1263299
aI1261521
aI1264843
aI1260649
aI1265358
aI1260644
aI1264844
aI1265363
aI1260440
aI1265742
aI1260439
aI1264845
aI1261526
aI1265357
aI1265747
aI1264489
aI1260642
aI1261520
asg169
S''
sg171
(lp4556
(dp4557
g178
I6
sg174
(dp4558
g176
I2
sg177
I75168
ssa(dp4559
g184
I3
sg180
(dp4560
g182
I14
sg183
I42
ssa(dp4561
g190
I2
sg186
(dp4562
g188
I26
sg189
I77981
ssasg191
S''
sg193
Nsg200
I22
sg196
I1264850
sg38
I24
sg197
I00
sg4333
S'captsolo | ConsolidateFrames:  BaseConsolidator | 2013_10_13 00:28:46'
p4563
sg198
I00
sg199
I00
sg194
S''
sg4335
S'M'
sa(dp4564
g4324
(lp4565
I1263989
asg4149
V0
sg4150
(lp4566
(dp4567
g4157
I3
sg4153
(dp4568
g4155
I2
sg4156
I42
ssasg4158
g4159
sg4160
Nsg4167
I22
sg4163
I1263989
sg38
I1
sg4164
I00
sg4333
S'captsolo | ConsolidateFrames:  BaseConsolidator | 2013_10_13 00:28:46'
p4569
sg4165
I00
sg4166
I00
sg4161
g4162
sg4335
S'O'
sa(dp4570
g4324
(lp4571
I1000042
asg2368
V
sg2369
(lp4572
(dp4573
g2376
I2
sg2372
(dp4574
g2374
I0
sg2375
I42
ssa(dp4575
g2382
I4
sg2378
(dp4576
g2380
I0
sg2381
I15
ssa(dp4577
g2388
I1
sg2384
(dp4578
g2386
I0
sg2387
I43
ssasg2389
g2390
sg2391
Nsg2398
I3
sg2394
I1000042
sg38
I1
sg2395
I00
sg4333
S'captsolo | ConsolidateFrames:  BaseConsolidator | 2013_10_13 00:28:46'
p4579
sg2396
I00
sg2397
I00
sg2392
g2393
sg4335
S'O'
sa(dp4580
g4324
(lp4581
I1264243
asg3412
g3413
sg3414
(lp4582
(dp4583
g3421
I3
sg3417
(dp4584
g3419
I2
sg3420
I42
ssa(dp4585
g3427
I2
sg3423
(dp4586
g3425
I8
sg3426
I114503
ssasg3428
g3429
sg3430
Nsg3437
I22
sg3433
I1264243
sg38
I1
sg3434
I00
sg4333
S'captsolo | ConsolidateFrames:  BaseConsolidator | 2013_10_13 00:28:46'
p4587
sg3435
I00
sg3436
I00
sg3431
g3432
sg4335
S'O'
sa(dp4588
g4324
(lp4589
I1000034
aI1000021
asg3597
S''
sg3598
(lp4590
(dp4591
g3605
I6
sg3601
(dp4592
g3603
I0
sg3604
I60
ssa(dp4593
g3611
I2
sg3607
(dp4594
g3609
I0
sg3610
I59
ssa(dp4595
g3617
I1
sg3613
(dp4596
g3615
I0
sg3616
I42
ssa(dp4597
g3623
I5
sg3619
(dp4598
g3621
I0
sg3622
I52
ssasg3624
S''
sg3626
Nsg3633
I6
sg3629
I1000034
sg38
I2
sg3630
I00
sg4333
S'captsolo | ConsolidateFrames:  BaseConsolidator | 2013_10_13 00:28:46'
p4599
sg3631
I00
sg3632
I00
sg3627
S''
sg4335
S'M'
sa(dp4600
g4324
(lp4601
I1261893
aI1260219
aI1264450
aI1265476
aI1263964
aI1265470
aI1264451
aI1264449
aI1262016
aI1265468
aI1263357
aI1261429
aI1263966
aI1261430
aI1265469
aI1261431
aI1263965
aI1260218
aI1262014
aI1262015
aI1266154
aI1260217
aI1263358
aI1262022
aI1261892
aI1263356
aI1261891
asg10
S''
sg12
(lp4602
(dp4603
g19
I6
sg15
(dp4604
g17
I2
sg18
I75168
ssa(dp4605
g25
I3
sg21
(dp4606
g23
I3
sg24
I42
ssa(dp4607
g31
I2
sg27
(dp4608
g29
I28
sg30
I75173
ssasg32
S''
sg34
Nsg42
I22
sg37
I1261893
sg38
I27
sg39
I00
sg4333
S'captsolo | ConsolidateFrames:  BaseConsolidator | 2013_10_13 00:28:46'
p4609
sg40
I00
sg41
I00
sg35
S''
sg4335
S'M'
sa(dp4610
g4324
(lp4611
I1000039
aI1000027
asg1641
S''
sg1642
(lp4612
(dp4613
g1649
I1
sg1645
(dp4614
g1647
I0
sg1648
I42
ssa(dp4615
g1655
I2
sg1651
(dp4616
g1653
I0
sg1654
I67
ssasg1656
S''
sg1658
Nsg1665
I7
sg1661
I1000039
sg38
I2
sg1662
I00
sg4333
S'captsolo | ConsolidateFrames:  BaseConsolidator | 2013_10_13 00:28:46'
p4617
sg1663
I00
sg1664
I00
sg1659
S''
sg4335
S'M'
sasS'entity'
p4618
(dp4619
VCategory
p4620
I3
sVName
p4621
VImants Ziedonis
p4622
sVOtherName
p4623
(lp4624
VI. Ziedonis
p4625
asVNameInflections
p4626
V
sVEntityId
p4627
I42
sVOuterId
p4628
(lp4629
VF6A8C3B7-AC39-11D4-9D85-00A0C9CFC2DB
p4630
assba.